; Listing generated by Microsoft (R) Optimizing Compiler Version 19.41.34123.0 

include listing.inc

INCLUDELIB MSVCRT
INCLUDELIB OLDNAMES

PUBLIC	?_TypeMetaName@@3PAPEBDA			; _TypeMetaName
PUBLIC	?IsTypeIntrospected@@3PA_NA			; IsTypeIntrospected
_DATA	SEGMENT
?_TypeMetaName@@3PAPEBDA DQ FLAT:$SG61597		; _TypeMetaName
	DQ	FLAT:$SG61598
	DQ	FLAT:$SG61599
	DQ	FLAT:$SG61600
	DQ	FLAT:$SG61601
	DQ	FLAT:$SG61602
	DQ	FLAT:$SG61603
	DQ	FLAT:$SG61604
	DQ	FLAT:$SG61605
	DQ	FLAT:$SG61606
	DQ	FLAT:$SG61607
	DQ	FLAT:$SG61608
	DQ	FLAT:$SG61609
	DQ	FLAT:$SG61610
	DQ	FLAT:$SG61611
	DQ	FLAT:$SG61612
	DQ	FLAT:$SG61613
	DQ	FLAT:$SG61614
	DQ	FLAT:$SG61615
	DQ	FLAT:$SG61616
	DQ	FLAT:$SG61617
	DQ	FLAT:$SG61618
	DQ	FLAT:$SG61619
	DQ	FLAT:$SG61620
	DQ	FLAT:$SG61621
	DQ	FLAT:$SG61622
	DQ	FLAT:$SG61623
	DQ	FLAT:$SG61624
	DQ	FLAT:$SG61625
	DQ	FLAT:$SG61626
	DQ	FLAT:$SG61627
	DQ	FLAT:$SG61628
?IsTypeIntrospected@@3PA_NA DB 00H			; IsTypeIntrospected
	DB	00H
	DB	00H
	DB	00H
	DB	00H
	DB	00H
	DB	00H
	DB	00H
	DB	00H
	DB	00H
	DB	00H
	DB	00H
	DB	00H
	DB	00H
	DB	00H
	DB	00H
	DB	01H
	DB	00H
	DB	00H
	DB	00H
	DB	00H
	DB	00H
	DB	00H
	DB	00H
	DB	00H
	DB	00H
	DB	00H
	DB	00H
	DB	00H
	DB	00H
	DB	00H
	DB	00H
_DATA	ENDS
CONST	SEGMENT
$SG52217 DB	'D', 00H, ':', 00H, '\', 00H, 'T', 00H, 'I', 00H, 'M', 00H
	DB	'E', 00H, '\', 00H, 'c', 00H, 'o', 00H, 'd', 00H, 'e', 00H, '\'
	DB	00H, 's', 00H, 't', 00H, 'b', 00H, '_', 00H, 'r', 00H, 'e', 00H
	DB	'c', 00H, 't', 00H, '_', 00H, 'p', 00H, 'a', 00H, 'c', 00H, 'k'
	DB	00H, '.', 00H, 'h', 00H, 00H, 00H
	ORG $+6
$SG52218 DB	'h', 00H, 'e', 00H, 'u', 00H, 'r', 00H, 'i', 00H, 's', 00H
	DB	't', 00H, 'i', 00H, 'c', 00H, ' ', 00H, '=', 00H, '=', 00H, ' '
	DB	00H, 'S', 00H, 'T', 00H, 'B', 00H, 'R', 00H, 'P', 00H, '_', 00H
	DB	'H', 00H, 'E', 00H, 'U', 00H, 'R', 00H, 'I', 00H, 'S', 00H, 'T'
	DB	00H, 'I', 00H, 'C', 00H, '_', 00H, 'S', 00H, 'k', 00H, 'y', 00H
	DB	'l', 00H, 'i', 00H, 'n', 00H, 'e', 00H, '_', 00H, 'B', 00H, 'L'
	DB	00H, '_', 00H, 's', 00H, 'o', 00H, 'r', 00H, 't', 00H, 'H', 00H
	DB	'e', 00H, 'i', 00H, 'g', 00H, 'h', 00H, 't', 00H, ' ', 00H, '|'
	DB	00H, '|', 00H, ' ', 00H, 'h', 00H, 'e', 00H, 'u', 00H, 'r', 00H
	DB	'i', 00H, 's', 00H, 't', 00H, 'i', 00H, 'c', 00H, ' ', 00H, '='
	DB	00H, '=', 00H, ' ', 00H, 'S', 00H, 'T', 00H, 'B', 00H, 'R', 00H
	DB	'P', 00H, '_', 00H, 'H', 00H, 'E', 00H, 'U', 00H, 'R', 00H, 'I'
	DB	00H, 'S', 00H, 'T', 00H, 'I', 00H, 'C', 00H, '_', 00H, 'S', 00H
	DB	'k', 00H, 'y', 00H, 'l', 00H, 'i', 00H, 'n', 00H, 'e', 00H, '_'
	DB	00H, 'B', 00H, 'F', 00H, '_', 00H, 's', 00H, 'o', 00H, 'r', 00H
	DB	't', 00H, 'H', 00H, 'e', 00H, 'i', 00H, 'g', 00H, 'h', 00H, 't'
	DB	00H, 00H, 00H
	ORG $+6
$SG52220 DB	'D', 00H, ':', 00H, '\', 00H, 'T', 00H, 'I', 00H, 'M', 00H
	DB	'E', 00H, '\', 00H, 'c', 00H, 'o', 00H, 'd', 00H, 'e', 00H, '\'
	DB	00H, 's', 00H, 't', 00H, 'b', 00H, '_', 00H, 'r', 00H, 'e', 00H
	DB	'c', 00H, 't', 00H, '_', 00H, 'p', 00H, 'a', 00H, 'c', 00H, 'k'
	DB	00H, '.', 00H, 'h', 00H, 00H, 00H
	ORG $+2
$SG52221 DB	'0', 00H, 00H, 00H
$SG52262 DB	'D', 00H, ':', 00H, '\', 00H, 'T', 00H, 'I', 00H, 'M', 00H
	DB	'E', 00H, '\', 00H, 'c', 00H, 'o', 00H, 'd', 00H, 'e', 00H, '\'
	DB	00H, 's', 00H, 't', 00H, 'b', 00H, '_', 00H, 'r', 00H, 'e', 00H
	DB	'c', 00H, 't', 00H, '_', 00H, 'p', 00H, 'a', 00H, 'c', 00H, 'k'
	DB	00H, '.', 00H, 'h', 00H, 00H, 00H
	ORG $+6
$SG52263 DB	'f', 00H, 'i', 00H, 'r', 00H, 's', 00H, 't', 00H, '-', 00H
	DB	'>', 00H, 'x', 00H, ' ', 00H, '<', 00H, '=', 00H, ' ', 00H, 'x'
	DB	00H, '0', 00H, 00H, 00H
	ORG $+2
$SG52264 DB	'D', 00H, ':', 00H, '\', 00H, 'T', 00H, 'I', 00H, 'M', 00H
	DB	'E', 00H, '\', 00H, 'c', 00H, 'o', 00H, 'd', 00H, 'e', 00H, '\'
	DB	00H, 's', 00H, 't', 00H, 'b', 00H, '_', 00H, 'r', 00H, 'e', 00H
	DB	'c', 00H, 't', 00H, '_', 00H, 'p', 00H, 'a', 00H, 'c', 00H, 'k'
	DB	00H, '.', 00H, 'h', 00H, 00H, 00H
	ORG $+6
$SG52265 DB	'n', 00H, 'o', 00H, 'd', 00H, 'e', 00H, '-', 00H, '>', 00H
	DB	'n', 00H, 'e', 00H, 'x', 00H, 't', 00H, '-', 00H, '>', 00H, 'x'
	DB	00H, ' ', 00H, '>', 00H, ' ', 00H, 'x', 00H, '0', 00H, 00H, 00H
	ORG $+2
$SG52266 DB	'D', 00H, ':', 00H, '\', 00H, 'T', 00H, 'I', 00H, 'M', 00H
	DB	'E', 00H, '\', 00H, 'c', 00H, 'o', 00H, 'd', 00H, 'e', 00H, '\'
	DB	00H, 's', 00H, 't', 00H, 'b', 00H, '_', 00H, 'r', 00H, 'e', 00H
	DB	'c', 00H, 't', 00H, '_', 00H, 'p', 00H, 'a', 00H, 'c', 00H, 'k'
	DB	00H, '.', 00H, 'h', 00H, 00H, 00H
	ORG $+6
$SG52267 DB	'n', 00H, 'o', 00H, 'd', 00H, 'e', 00H, '-', 00H, '>', 00H
	DB	'x', 00H, ' ', 00H, '<', 00H, '=', 00H, ' ', 00H, 'x', 00H, '0'
	DB	00H, 00H, 00H
	ORG $+4
$SG52322 DB	'D', 00H, ':', 00H, '\', 00H, 'T', 00H, 'I', 00H, 'M', 00H
	DB	'E', 00H, '\', 00H, 'c', 00H, 'o', 00H, 'd', 00H, 'e', 00H, '\'
	DB	00H, 's', 00H, 't', 00H, 'b', 00H, '_', 00H, 'r', 00H, 'e', 00H
	DB	'c', 00H, 't', 00H, '_', 00H, 'p', 00H, 'a', 00H, 'c', 00H, 'k'
	DB	00H, '.', 00H, 'h', 00H, 00H, 00H
	ORG $+6
$SG52323 DB	'w', 00H, 'i', 00H, 'd', 00H, 't', 00H, 'h', 00H, ' ', 00H
	DB	'%', 00H, ' ', 00H, 'c', 00H, '-', 00H, '>', 00H, 'a', 00H, 'l'
	DB	00H, 'i', 00H, 'g', 00H, 'n', 00H, ' ', 00H, '=', 00H, '=', 00H
	DB	' ', 00H, '0', 00H, 00H, 00H
	ORG $+4
$SG52333 DB	'D', 00H, ':', 00H, '\', 00H, 'T', 00H, 'I', 00H, 'M', 00H
	DB	'E', 00H, '\', 00H, 'c', 00H, 'o', 00H, 'd', 00H, 'e', 00H, '\'
	DB	00H, 's', 00H, 't', 00H, 'b', 00H, '_', 00H, 'r', 00H, 'e', 00H
	DB	'c', 00H, 't', 00H, '_', 00H, 'p', 00H, 'a', 00H, 'c', 00H, 'k'
	DB	00H, '.', 00H, 'h', 00H, 00H, 00H
	ORG $+6
$SG52334 DB	'x', 00H, 'p', 00H, 'o', 00H, 's', 00H, ' ', 00H, '>', 00H
	DB	'=', 00H, ' ', 00H, '0', 00H, 00H, 00H
	ORG $+4
$SG52335 DB	'D', 00H, ':', 00H, '\', 00H, 'T', 00H, 'I', 00H, 'M', 00H
	DB	'E', 00H, '\', 00H, 'c', 00H, 'o', 00H, 'd', 00H, 'e', 00H, '\'
	DB	00H, 's', 00H, 't', 00H, 'b', 00H, '_', 00H, 'r', 00H, 'e', 00H
	DB	'c', 00H, 't', 00H, '_', 00H, 'p', 00H, 'a', 00H, 'c', 00H, 'k'
	DB	00H, '.', 00H, 'h', 00H, 00H, 00H
	ORG $+14
$SG52336 DB	'n', 00H, 'o', 00H, 'd', 00H, 'e', 00H, '-', 00H, '>', 00H
	DB	'n', 00H, 'e', 00H, 'x', 00H, 't', 00H, '-', 00H, '>', 00H, 'x'
	DB	00H, ' ', 00H, '>', 00H, ' ', 00H, 'x', 00H, 'p', 00H, 'o', 00H
	DB	's', 00H, ' ', 00H, '&', 00H, '&', 00H, ' ', 00H, 'n', 00H, 'o'
	DB	00H, 'd', 00H, 'e', 00H, '-', 00H, '>', 00H, 'x', 00H, ' ', 00H
	DB	'<', 00H, '=', 00H, ' ', 00H, 'x', 00H, 'p', 00H, 'o', 00H, 's'
	DB	00H, 00H, 00H
$SG52341 DB	'D', 00H, ':', 00H, '\', 00H, 'T', 00H, 'I', 00H, 'M', 00H
	DB	'E', 00H, '\', 00H, 'c', 00H, 'o', 00H, 'd', 00H, 'e', 00H, '\'
	DB	00H, 's', 00H, 't', 00H, 'b', 00H, '_', 00H, 'r', 00H, 'e', 00H
	DB	'c', 00H, 't', 00H, '_', 00H, 'p', 00H, 'a', 00H, 'c', 00H, 'k'
	DB	00H, '.', 00H, 'h', 00H, 00H, 00H
	ORG $+6
$SG52342 DB	'y', 00H, ' ', 00H, '<', 00H, '=', 00H, ' ', 00H, 'b', 00H
	DB	'e', 00H, 's', 00H, 't', 00H, '_', 00H, 'y', 00H, 00H, 00H
$SG61597 DB	'float', 00H
	ORG $+2
$SG61598 DB	'double', 00H
	ORG $+1
$SG61599 DB	'bool', 00H
	ORG $+3
$SG61600 DB	'int', 00H
$SG61601 DB	'short', 00H
	ORG $+2
$SG61602 DB	'long', 00H
	ORG $+7
$SG61603 DB	'long long', 00H
	ORG $+2
$SG61604 DB	'char', 00H
	ORG $+7
$SG61605 DB	'unsigned int', 00H
	ORG $+3
$SG61606 DB	'unsigned short', 00H
	ORG $+1
$SG61607 DB	'unsigned long', 00H
	ORG $+2
$SG61608 DB	'unsigned long long', 00H
	ORG $+5
$SG61609 DB	'unsigned char', 00H
	ORG $+2
$SG61610 DB	'void', 00H
	ORG $+3
$SG61611 DB	'_StructMetaData', 00H
$SG61612 DB	'_MemberMetaData', 00H
$SG61613 DB	'D_Array', 00H
$SG61614 DB	'AppWindow', 00H
	ORG $+6
$SG61615 DB	'LineData', 00H
	ORG $+7
$SG61616 DB	'QuadVertexPosition', 00H
	ORG $+1
$SG61617 DB	'_Rect', 00H
	ORG $+6
$SG61618 DB	'_MemoryDetail', 00H
	ORG $+2
$SG61619 DB	'_GameSave', 00H
	ORG $+6
$SG61620 DB	'_TemporayMemory', 00H
$SG61621 DB	'D_GlyphInfo', 00H
	ORG $+4
$SG61622 DB	'D_GlyphInfoNode', 00H
$SG61623 DB	'_D_Font_Info', 00H
	ORG $+3
$SG61624 DB	'D_App_Data', 00H
	ORG $+5
$SG61625 DB	'Vector4', 00H
$SG61626 DB	'Vector2', 00H
$SG61627 DB	'Vector3', 00H
$SG61628 DB	'Quaternion', 00H
	ORG $+5
$SG61660 DB	'IsValidArray', 00H
	ORG $+3
$SG61661 DB	'bool', 00H
	ORG $+3
$SG61662 DB	'TypeSize', 00H
	ORG $+3
$SG61663 DB	'int', 00H
$SG61664 DB	'ArrayMaxSize', 00H
	ORG $+3
$SG61665 DB	'int', 00H
	ORG $+4
$SG61666 DB	'ArrayCount', 00H
	ORG $+1
$SG61667 DB	'int', 00H
$SG61668 DB	'LowestArraySlot', 00H
$SG61669 DB	'int', 00H
	ORG $+4
$SG62036 DB	'D_Array', 00H
$SG62037 DB	'bool', 00H
	ORG $+3
$SG62167 DB	'Time', 00H
	ORG $+3
$SG62169 DB	'Asset\DefaultFont.ttf', 00H
	ORG $+2
$SG62171 DB	'DGame.dll', 00H
	ORG $+6
$SG62172 DB	'C_DGame.dll', 00H
	ORG $+4
$SG62173 DB	'GameLoad', 00H
	ORG $+7
$SG62179 DB	'Lock.tmp', 00H
	ORG $+7
$SG54019 DB	'D', 00H, ':', 00H, '\', 00H, 'T', 00H, 'I', 00H, 'M', 00H
	DB	'E', 00H, '\', 00H, 'c', 00H, 'o', 00H, 'd', 00H, 'e', 00H, '\'
	DB	00H, 's', 00H, 't', 00H, 'b', 00H, '_', 00H, 't', 00H, 'r', 00H
	DB	'u', 00H, 'e', 00H, 't', 00H, 'y', 00H, 'p', 00H, 'e', 00H, '.'
	DB	00H, 'h', 00H, 00H, 00H
$SG54020 DB	'!', 00H, '(', 00H, 'o', 00H, ' ', 00H, '>', 00H, ' ', 00H
	DB	'b', 00H, '-', 00H, '>', 00H, 's', 00H, 'i', 00H, 'z', 00H, 'e'
	DB	00H, ' ', 00H, '|', 00H, '|', 00H, ' ', 00H, 'o', 00H, ' ', 00H
	DB	'<', 00H, ' ', 00H, '0', 00H, ')', 00H, 00H, 00H
$SG54036 DB	'D', 00H, ':', 00H, '\', 00H, 'T', 00H, 'I', 00H, 'M', 00H
	DB	'E', 00H, '\', 00H, 'c', 00H, 'o', 00H, 'd', 00H, 'e', 00H, '\'
	DB	00H, 's', 00H, 't', 00H, 'b', 00H, '_', 00H, 't', 00H, 'r', 00H
	DB	'u', 00H, 'e', 00H, 't', 00H, 'y', 00H, 'p', 00H, 'e', 00H, '.'
	DB	00H, 'h', 00H, 00H, 00H
$SG54037 DB	'n', 00H, ' ', 00H, '>', 00H, '=', 00H, ' ', 00H, '1', 00H
	DB	' ', 00H, '&', 00H, '&', 00H, ' ', 00H, 'n', 00H, ' ', 00H, '<'
	DB	00H, '=', 00H, ' ', 00H, '4', 00H, 00H, 00H
	ORG $+6
$SG54047 DB	'D', 00H, ':', 00H, '\', 00H, 'T', 00H, 'I', 00H, 'M', 00H
	DB	'E', 00H, '\', 00H, 'c', 00H, 'o', 00H, 'd', 00H, 'e', 00H, '\'
	DB	00H, 's', 00H, 't', 00H, 'b', 00H, '_', 00H, 't', 00H, 'r', 00H
	DB	'u', 00H, 'e', 00H, 't', 00H, 'y', 00H, 'p', 00H, 'e', 00H, '.'
	DB	00H, 'h', 00H, 00H, 00H
$SG54048 DB	's', 00H, 'i', 00H, 'z', 00H, 'e', 00H, ' ', 00H, '<', 00H
	DB	' ', 00H, '0', 00H, 'x', 00H, '4', 00H, '0', 00H, '0', 00H, '0'
	DB	00H, '0', 00H, '0', 00H, '0', 00H, '0', 00H, 00H, 00H
	ORG $+4
$SG54068 DB	'D', 00H, ':', 00H, '\', 00H, 'T', 00H, 'I', 00H, 'M', 00H
	DB	'E', 00H, '\', 00H, 'c', 00H, 'o', 00H, 'd', 00H, 'e', 00H, '\'
	DB	00H, 's', 00H, 't', 00H, 'b', 00H, '_', 00H, 't', 00H, 'r', 00H
	DB	'u', 00H, 'e', 00H, 't', 00H, 'y', 00H, 'p', 00H, 'e', 00H, '.'
	DB	00H, 'h', 00H, 00H, 00H
$SG54069 DB	'o', 00H, 'f', 00H, 'f', 00H, 's', 00H, 'i', 00H, 'z', 00H
	DB	'e', 00H, ' ', 00H, '>', 00H, '=', 00H, ' ', 00H, '1', 00H, ' '
	DB	00H, '&', 00H, '&', 00H, ' ', 00H, 'o', 00H, 'f', 00H, 'f', 00H
	DB	's', 00H, 'i', 00H, 'z', 00H, 'e', 00H, ' ', 00H, '<', 00H, '='
	DB	00H, ' ', 00H, '4', 00H, 00H, 00H
	ORG $+6
$SG54085 DB	'D', 00H, ':', 00H, '\', 00H, 'T', 00H, 'I', 00H, 'M', 00H
	DB	'E', 00H, '\', 00H, 'c', 00H, 'o', 00H, 'd', 00H, 'e', 00H, '\'
	DB	00H, 's', 00H, 't', 00H, 'b', 00H, '_', 00H, 't', 00H, 'r', 00H
	DB	'u', 00H, 'e', 00H, 't', 00H, 'y', 00H, 'p', 00H, 'e', 00H, '.'
	DB	00H, 'h', 00H, 00H, 00H
$SG54086 DB	'0', 00H, 00H, 00H
	ORG $+4
$SG54096 DB	'D', 00H, ':', 00H, '\', 00H, 'T', 00H, 'I', 00H, 'M', 00H
	DB	'E', 00H, '\', 00H, 'c', 00H, 'o', 00H, 'd', 00H, 'e', 00H, '\'
	DB	00H, 's', 00H, 't', 00H, 'b', 00H, '_', 00H, 't', 00H, 'r', 00H
	DB	'u', 00H, 'e', 00H, 't', 00H, 'y', 00H, 'p', 00H, 'e', 00H, '.'
	DB	00H, 'h', 00H, 00H, 00H
$SG54097 DB	'b', 00H, '0', 00H, ' ', 00H, '>', 00H, '=', 00H, ' ', 00H
	DB	'2', 00H, '8', 00H, 00H, 00H
	ORG $+6
$SG54145 DB	'D', 00H, ':', 00H, '\', 00H, 'T', 00H, 'I', 00H, 'M', 00H
	DB	'E', 00H, '\', 00H, 'c', 00H, 'o', 00H, 'd', 00H, 'e', 00H, '\'
	DB	00H, 's', 00H, 't', 00H, 'b', 00H, '_', 00H, 't', 00H, 'r', 00H
	DB	'u', 00H, 'e', 00H, 't', 00H, 'y', 00H, 'p', 00H, 'e', 00H, '.'
	DB	00H, 'h', 00H, 00H, 00H
$SG54146 DB	'i', 00H, ' ', 00H, '>', 00H, '=', 00H, ' ', 00H, '0', 00H
	DB	' ', 00H, '&', 00H, '&', 00H, ' ', 00H, 'i', 00H, ' ', 00H, '<'
	DB	00H, ' ', 00H, 'c', 00H, 'o', 00H, 'u', 00H, 'n', 00H, 't', 00H
	DB	00H, 00H
$SG54147 DB	'D', 00H, ':', 00H, '\', 00H, 'T', 00H, 'I', 00H, 'M', 00H
	DB	'E', 00H, '\', 00H, 'c', 00H, 'o', 00H, 'd', 00H, 'e', 00H, '\'
	DB	00H, 's', 00H, 't', 00H, 'b', 00H, '_', 00H, 't', 00H, 'r', 00H
	DB	'u', 00H, 'e', 00H, 't', 00H, 'y', 00H, 'p', 00H, 'e', 00H, '.'
	DB	00H, 'h', 00H, 00H, 00H
$SG54148 DB	'o', 00H, 'f', 00H, 'f', 00H, 's', 00H, 'i', 00H, 'z', 00H
	DB	'e', 00H, ' ', 00H, '>', 00H, '=', 00H, ' ', 00H, '1', 00H, ' '
	DB	00H, '&', 00H, '&', 00H, ' ', 00H, 'o', 00H, 'f', 00H, 'f', 00H
	DB	's', 00H, 'i', 00H, 'z', 00H, 'e', 00H, ' ', 00H, '<', 00H, '='
	DB	00H, ' ', 00H, '4', 00H, 00H, 00H
	ORG $+2
$SG54166 DB	'typ1', 00H
	ORG $+3
$SG54167 DB	'typ1', 00H
	ORG $+3
$SG54168 DB	'typ1', 00H
	ORG $+3
$SG54169 DB	'typ1', 00H
	ORG $+3
$SG54171 DB	'OTTO', 00H
	ORG $+3
$SG54172 DB	'OTTO', 00H
	ORG $+3
$SG54173 DB	'OTTO', 00H
	ORG $+3
$SG54174 DB	'OTTO', 00H
	ORG $+3
$SG54177 DB	'true', 00H
	ORG $+3
$SG54178 DB	'true', 00H
	ORG $+3
$SG54179 DB	'true', 00H
	ORG $+3
$SG54180 DB	'true', 00H
	ORG $+3
$SG54201 DB	'ttcf', 00H
	ORG $+3
$SG54202 DB	'ttcf', 00H
	ORG $+3
$SG54203 DB	'ttcf', 00H
	ORG $+3
$SG54204 DB	'ttcf', 00H
	ORG $+3
$SG54213 DB	'ttcf', 00H
	ORG $+3
$SG54214 DB	'ttcf', 00H
	ORG $+3
$SG54215 DB	'ttcf', 00H
	ORG $+3
$SG54216 DB	'ttcf', 00H
	ORG $+3
$SG54239 DB	'SVG ', 00H
	ORG $+3
$SG54283 DB	'cmap', 00H
	ORG $+3
$SG54284 DB	'loca', 00H
	ORG $+3
$SG54285 DB	'head', 00H
	ORG $+3
$SG54286 DB	'glyf', 00H
	ORG $+3
$SG54287 DB	'hhea', 00H
	ORG $+3
$SG54288 DB	'hmtx', 00H
	ORG $+3
$SG54289 DB	'kern', 00H
	ORG $+3
$SG54290 DB	'GPOS', 00H
	ORG $+3
$SG54296 DB	'CFF ', 00H
	ORG $+3
$SG54302 DB	'maxp', 00H
	ORG $+7
$SG54362 DB	'D', 00H, ':', 00H, '\', 00H, 'T', 00H, 'I', 00H, 'M', 00H
	DB	'E', 00H, '\', 00H, 'c', 00H, 'o', 00H, 'd', 00H, 'e', 00H, '\'
	DB	00H, 's', 00H, 't', 00H, 'b', 00H, '_', 00H, 't', 00H, 'r', 00H
	DB	'u', 00H, 'e', 00H, 't', 00H, 'y', 00H, 'p', 00H, 'e', 00H, '.'
	DB	00H, 'h', 00H, 00H, 00H
$SG54363 DB	'0', 00H, 00H, 00H
	ORG $+4
$SG54380 DB	'D', 00H, ':', 00H, '\', 00H, 'T', 00H, 'I', 00H, 'M', 00H
	DB	'E', 00H, '\', 00H, 'c', 00H, 'o', 00H, 'd', 00H, 'e', 00H, '\'
	DB	00H, 's', 00H, 't', 00H, 'b', 00H, '_', 00H, 't', 00H, 'r', 00H
	DB	'u', 00H, 'e', 00H, 't', 00H, 'y', 00H, 'p', 00H, 'e', 00H, '.'
	DB	00H, 'h', 00H, 00H, 00H
$SG54381 DB	'0', 00H, 00H, 00H
	ORG $+4
$SG54407 DB	'D', 00H, ':', 00H, '\', 00H, 'T', 00H, 'I', 00H, 'M', 00H
	DB	'E', 00H, '\', 00H, 'c', 00H, 'o', 00H, 'd', 00H, 'e', 00H, '\'
	DB	00H, 's', 00H, 't', 00H, 'b', 00H, '_', 00H, 't', 00H, 'r', 00H
	DB	'u', 00H, 'e', 00H, 't', 00H, 'y', 00H, 'p', 00H, 'e', 00H, '.'
	DB	00H, 'h', 00H, 00H, 00H
$SG54408 DB	'!', 00H, 'i', 00H, 'n', 00H, 'f', 00H, 'o', 00H, '-', 00H
	DB	'>', 00H, 'c', 00H, 'f', 00H, 'f', 00H, '.', 00H, 's', 00H, 'i'
	DB	00H, 'z', 00H, 'e', 00H, 00H, 00H
$SG54595 DB	'D', 00H, ':', 00H, '\', 00H, 'T', 00H, 'I', 00H, 'M', 00H
	DB	'E', 00H, '\', 00H, 'c', 00H, 'o', 00H, 'd', 00H, 'e', 00H, '\'
	DB	00H, 's', 00H, 't', 00H, 'b', 00H, '_', 00H, 't', 00H, 'r', 00H
	DB	'u', 00H, 'e', 00H, 't', 00H, 'y', 00H, 'p', 00H, 'e', 00H, '.'
	DB	00H, 'h', 00H, 00H, 00H
$SG54596 DB	'0', 00H, 00H, 00H
	ORG $+4
$SG54898 DB	'D', 00H, ':', 00H, '\', 00H, 'T', 00H, 'I', 00H, 'M', 00H
	DB	'E', 00H, '\', 00H, 'c', 00H, 'o', 00H, 'd', 00H, 'e', 00H, '\'
	DB	00H, 's', 00H, 't', 00H, 'b', 00H, '_', 00H, 't', 00H, 'r', 00H
	DB	'u', 00H, 'e', 00H, 't', 00H, 'y', 00H, 'p', 00H, 'e', 00H, '.'
	DB	00H, 'h', 00H, 00H, 00H
	ORG $+8
$SG54899 DB	'o', 00H, 'u', 00H, 't', 00H, 'p', 00H, 'u', 00H, 't', 00H
	DB	'_', 00H, 'c', 00H, 't', 00H, 'x', 00H, '.', 00H, 'n', 00H, 'u'
	DB	00H, 'm', 00H, '_', 00H, 'v', 00H, 'e', 00H, 'r', 00H, 't', 00H
	DB	'i', 00H, 'c', 00H, 'e', 00H, 's', 00H, ' ', 00H, '=', 00H, '='
	DB	00H, ' ', 00H, 'c', 00H, 'o', 00H, 'u', 00H, 'n', 00H, 't', 00H
	DB	'_', 00H, 'c', 00H, 't', 00H, 'x', 00H, '.', 00H, 'n', 00H, 'u'
	DB	00H, 'm', 00H, '_', 00H, 'v', 00H, 'e', 00H, 'r', 00H, 't', 00H
	DB	'i', 00H, 'c', 00H, 'e', 00H, 's', 00H, 00H, 00H
$SG55163 DB	'OS/2', 00H
	ORG $+7
$SG55388 DB	'D', 00H, ':', 00H, '\', 00H, 'T', 00H, 'I', 00H, 'M', 00H
	DB	'E', 00H, '\', 00H, 'c', 00H, 'o', 00H, 'd', 00H, 'e', 00H, '\'
	DB	00H, 's', 00H, 't', 00H, 'b', 00H, '_', 00H, 't', 00H, 'r', 00H
	DB	'u', 00H, 'e', 00H, 't', 00H, 'y', 00H, 'p', 00H, 'e', 00H, '.'
	DB	00H, 'h', 00H, 00H, 00H
$SG55389 DB	'z', 00H, ' ', 00H, '!', 00H, '=', 00H, ' ', 00H, '0', 00H
	DB	00H, 00H
	ORG $+2
$SG55417 DB	'D', 00H, ':', 00H, '\', 00H, 'T', 00H, 'I', 00H, 'M', 00H
	DB	'E', 00H, '\', 00H, 'c', 00H, 'o', 00H, 'd', 00H, 'e', 00H, '\'
	DB	00H, 's', 00H, 't', 00H, 'b', 00H, '_', 00H, 't', 00H, 'r', 00H
	DB	'u', 00H, 'e', 00H, 't', 00H, 'y', 00H, 'p', 00H, 'e', 00H, '.'
	DB	00H, 'h', 00H, 00H, 00H
$SG55418 DB	'y', 00H, '0', 00H, ' ', 00H, '<', 00H, ' ', 00H, 'y', 00H
	DB	'1', 00H, 00H, 00H
$SG55419 DB	'D', 00H, ':', 00H, '\', 00H, 'T', 00H, 'I', 00H, 'M', 00H
	DB	'E', 00H, '\', 00H, 'c', 00H, 'o', 00H, 'd', 00H, 'e', 00H, '\'
	DB	00H, 's', 00H, 't', 00H, 'b', 00H, '_', 00H, 't', 00H, 'r', 00H
	DB	'u', 00H, 'e', 00H, 't', 00H, 'y', 00H, 'p', 00H, 'e', 00H, '.'
	DB	00H, 'h', 00H, 00H, 00H
$SG55420 DB	'e', 00H, '-', 00H, '>', 00H, 's', 00H, 'y', 00H, ' ', 00H
	DB	'<', 00H, '=', 00H, ' ', 00H, 'e', 00H, '-', 00H, '>', 00H, 'e'
	DB	00H, 'y', 00H, 00H, 00H
	ORG $+2
$SG55427 DB	'D', 00H, ':', 00H, '\', 00H, 'T', 00H, 'I', 00H, 'M', 00H
	DB	'E', 00H, '\', 00H, 'c', 00H, 'o', 00H, 'd', 00H, 'e', 00H, '\'
	DB	00H, 's', 00H, 't', 00H, 'b', 00H, '_', 00H, 't', 00H, 'r', 00H
	DB	'u', 00H, 'e', 00H, 't', 00H, 'y', 00H, 'p', 00H, 'e', 00H, '.'
	DB	00H, 'h', 00H, 00H, 00H
$SG55428 DB	'x', 00H, '1', 00H, ' ', 00H, '<', 00H, '=', 00H, ' ', 00H
	DB	'x', 00H, '+', 00H, '1', 00H, 00H, 00H
	ORG $+4
$SG55431 DB	'D', 00H, ':', 00H, '\', 00H, 'T', 00H, 'I', 00H, 'M', 00H
	DB	'E', 00H, '\', 00H, 'c', 00H, 'o', 00H, 'd', 00H, 'e', 00H, '\'
	DB	00H, 's', 00H, 't', 00H, 'b', 00H, '_', 00H, 't', 00H, 'r', 00H
	DB	'u', 00H, 'e', 00H, 't', 00H, 'y', 00H, 'p', 00H, 'e', 00H, '.'
	DB	00H, 'h', 00H, 00H, 00H
$SG55432 DB	'x', 00H, '1', 00H, ' ', 00H, '>', 00H, '=', 00H, ' ', 00H
	DB	'x', 00H, 00H, 00H
$SG55435 DB	'D', 00H, ':', 00H, '\', 00H, 'T', 00H, 'I', 00H, 'M', 00H
	DB	'E', 00H, '\', 00H, 'c', 00H, 'o', 00H, 'd', 00H, 'e', 00H, '\'
	DB	00H, 's', 00H, 't', 00H, 'b', 00H, '_', 00H, 't', 00H, 'r', 00H
	DB	'u', 00H, 'e', 00H, 't', 00H, 'y', 00H, 'p', 00H, 'e', 00H, '.'
	DB	00H, 'h', 00H, 00H, 00H
$SG55436 DB	'x', 00H, '1', 00H, ' ', 00H, '<', 00H, '=', 00H, ' ', 00H
	DB	'x', 00H, 00H, 00H
$SG55439 DB	'D', 00H, ':', 00H, '\', 00H, 'T', 00H, 'I', 00H, 'M', 00H
	DB	'E', 00H, '\', 00H, 'c', 00H, 'o', 00H, 'd', 00H, 'e', 00H, '\'
	DB	00H, 's', 00H, 't', 00H, 'b', 00H, '_', 00H, 't', 00H, 'r', 00H
	DB	'u', 00H, 'e', 00H, 't', 00H, 'y', 00H, 'p', 00H, 'e', 00H, '.'
	DB	00H, 'h', 00H, 00H, 00H
$SG55440 DB	'x', 00H, '1', 00H, ' ', 00H, '>', 00H, '=', 00H, ' ', 00H
	DB	'x', 00H, '+', 00H, '1', 00H, 00H, 00H
	ORG $+4
$SG55441 DB	'D', 00H, ':', 00H, '\', 00H, 'T', 00H, 'I', 00H, 'M', 00H
	DB	'E', 00H, '\', 00H, 'c', 00H, 'o', 00H, 'd', 00H, 'e', 00H, '\'
	DB	00H, 's', 00H, 't', 00H, 'b', 00H, '_', 00H, 't', 00H, 'r', 00H
	DB	'u', 00H, 'e', 00H, 't', 00H, 'y', 00H, 'p', 00H, 'e', 00H, '.'
	DB	00H, 'h', 00H, 00H, 00H
$SG55442 DB	'x', 00H, '1', 00H, ' ', 00H, '>', 00H, '=', 00H, ' ', 00H
	DB	'x', 00H, ' ', 00H, '&', 00H, '&', 00H, ' ', 00H, 'x', 00H, '1'
	DB	00H, ' ', 00H, '<', 00H, '=', 00H, ' ', 00H, 'x', 00H, '+', 00H
	DB	'1', 00H, 00H, 00H
	ORG $+6
$SG55447 DB	'D', 00H, ':', 00H, '\', 00H, 'T', 00H, 'I', 00H, 'M', 00H
	DB	'E', 00H, '\', 00H, 'c', 00H, 'o', 00H, 'd', 00H, 'e', 00H, '\'
	DB	00H, 's', 00H, 't', 00H, 'b', 00H, '_', 00H, 't', 00H, 'r', 00H
	DB	'u', 00H, 'e', 00H, 't', 00H, 'y', 00H, 'p', 00H, 'e', 00H, '.'
	DB	00H, 'h', 00H, 00H, 00H
	ORG $+8
$SG55448 DB	'x', 00H, '0', 00H, ' ', 00H, '>', 00H, '=', 00H, ' ', 00H
	DB	'x', 00H, ' ', 00H, '&', 00H, '&', 00H, ' ', 00H, 'x', 00H, '0'
	DB	00H, ' ', 00H, '<', 00H, '=', 00H, ' ', 00H, 'x', 00H, '+', 00H
	DB	'1', 00H, ' ', 00H, '&', 00H, '&', 00H, ' ', 00H, 'x', 00H, '1'
	DB	00H, ' ', 00H, '>', 00H, '=', 00H, ' ', 00H, 'x', 00H, ' ', 00H
	DB	'&', 00H, '&', 00H, ' ', 00H, 'x', 00H, '1', 00H, ' ', 00H, '<'
	DB	00H, '=', 00H, ' ', 00H, 'x', 00H, '+', 00H, '1', 00H, 00H, 00H
	ORG $+6
$SG55458 DB	'D', 00H, ':', 00H, '\', 00H, 'T', 00H, 'I', 00H, 'M', 00H
	DB	'E', 00H, '\', 00H, 'c', 00H, 'o', 00H, 'd', 00H, 'e', 00H, '\'
	DB	00H, 's', 00H, 't', 00H, 'b', 00H, '_', 00H, 't', 00H, 'r', 00H
	DB	'u', 00H, 'e', 00H, 't', 00H, 'y', 00H, 'p', 00H, 'e', 00H, '.'
	DB	00H, 'h', 00H, 00H, 00H
$SG55459 DB	't', 00H, 'o', 00H, 'p', 00H, '_', 00H, 'w', 00H, 'i', 00H
	DB	'd', 00H, 't', 00H, 'h', 00H, ' ', 00H, '>', 00H, '=', 00H, ' '
	DB	00H, '0', 00H, 00H, 00H
	ORG $+2
$SG55460 DB	'D', 00H, ':', 00H, '\', 00H, 'T', 00H, 'I', 00H, 'M', 00H
	DB	'E', 00H, '\', 00H, 'c', 00H, 'o', 00H, 'd', 00H, 'e', 00H, '\'
	DB	00H, 's', 00H, 't', 00H, 'b', 00H, '_', 00H, 't', 00H, 'r', 00H
	DB	'u', 00H, 'e', 00H, 't', 00H, 'y', 00H, 'p', 00H, 'e', 00H, '.'
	DB	00H, 'h', 00H, 00H, 00H
$SG55461 DB	'b', 00H, 'o', 00H, 't', 00H, 't', 00H, 'o', 00H, 'm', 00H
	DB	'_', 00H, 'w', 00H, 'i', 00H, 'd', 00H, 't', 00H, 'h', 00H, ' '
	DB	00H, '>', 00H, '=', 00H, ' ', 00H, '0', 00H, 00H, 00H
	ORG $+4
$SG55541 DB	'D', 00H, ':', 00H, '\', 00H, 'T', 00H, 'I', 00H, 'M', 00H
	DB	'E', 00H, '\', 00H, 'c', 00H, 'o', 00H, 'd', 00H, 'e', 00H, '\'
	DB	00H, 's', 00H, 't', 00H, 'b', 00H, '_', 00H, 't', 00H, 'r', 00H
	DB	'u', 00H, 'e', 00H, 't', 00H, 'y', 00H, 'p', 00H, 'e', 00H, '.'
	DB	00H, 'h', 00H, 00H, 00H
$SG55542 DB	'e', 00H, '-', 00H, '>', 00H, 'e', 00H, 'y', 00H, ' ', 00H
	DB	'>', 00H, '=', 00H, ' ', 00H, 'y', 00H, '_', 00H, 't', 00H, 'o'
	DB	00H, 'p', 00H, 00H, 00H
	ORG $+2
$SG55548 DB	'D', 00H, ':', 00H, '\', 00H, 'T', 00H, 'I', 00H, 'M', 00H
	DB	'E', 00H, '\', 00H, 'c', 00H, 'o', 00H, 'd', 00H, 'e', 00H, '\'
	DB	00H, 's', 00H, 't', 00H, 'b', 00H, '_', 00H, 't', 00H, 'r', 00H
	DB	'u', 00H, 'e', 00H, 't', 00H, 'y', 00H, 'p', 00H, 'e', 00H, '.'
	DB	00H, 'h', 00H, 00H, 00H
	ORG $+8
$SG55549 DB	'e', 00H, '-', 00H, '>', 00H, 's', 00H, 'y', 00H, ' ', 00H
	DB	'<', 00H, '=', 00H, ' ', 00H, 'y', 00H, '_', 00H, 'b', 00H, 'o'
	DB	00H, 't', 00H, 't', 00H, 'o', 00H, 'm', 00H, ' ', 00H, '&', 00H
	DB	'&', 00H, ' ', 00H, 'e', 00H, '-', 00H, '>', 00H, 'e', 00H, 'y'
	DB	00H, ' ', 00H, '>', 00H, '=', 00H, ' ', 00H, 'y', 00H, '_', 00H
	DB	't', 00H, 'o', 00H, 'p', 00H, 00H, 00H
$SG55558 DB	'D', 00H, ':', 00H, '\', 00H, 'T', 00H, 'I', 00H, 'M', 00H
	DB	'E', 00H, '\', 00H, 'c', 00H, 'o', 00H, 'd', 00H, 'e', 00H, '\'
	DB	00H, 's', 00H, 't', 00H, 'b', 00H, '_', 00H, 't', 00H, 'r', 00H
	DB	'u', 00H, 'e', 00H, 't', 00H, 'y', 00H, 'p', 00H, 'e', 00H, '.'
	DB	00H, 'h', 00H, 00H, 00H
$SG55559 DB	'x', 00H, ' ', 00H, '>', 00H, '=', 00H, ' ', 00H, '0', 00H
	DB	' ', 00H, '&', 00H, '&', 00H, ' ', 00H, 'x', 00H, ' ', 00H, '<'
	DB	00H, ' ', 00H, 'l', 00H, 'e', 00H, 'n', 00H, 00H, 00H
	ORG $+4
$SG55561 DB	'D', 00H, ':', 00H, '\', 00H, 'T', 00H, 'I', 00H, 'M', 00H
	DB	'E', 00H, '\', 00H, 'c', 00H, 'o', 00H, 'd', 00H, 'e', 00H, '\'
	DB	00H, 's', 00H, 't', 00H, 'b', 00H, '_', 00H, 't', 00H, 'r', 00H
	DB	'u', 00H, 'e', 00H, 't', 00H, 'y', 00H, 'p', 00H, 'e', 00H, '.'
	DB	00H, 'h', 00H, 00H, 00H
$SG55562 DB	'd', 00H, 'y', 00H, ' ', 00H, '>', 00H, '=', 00H, ' ', 00H
	DB	'0', 00H, 00H, 00H
$SG55563 DB	'D', 00H, ':', 00H, '\', 00H, 'T', 00H, 'I', 00H, 'M', 00H
	DB	'E', 00H, '\', 00H, 'c', 00H, 'o', 00H, 'd', 00H, 'e', 00H, '\'
	DB	00H, 's', 00H, 't', 00H, 'b', 00H, '_', 00H, 't', 00H, 'r', 00H
	DB	'u', 00H, 'e', 00H, 't', 00H, 'y', 00H, 'p', 00H, 'e', 00H, '.'
	DB	00H, 'h', 00H, 00H, 00H
$SG55564 DB	'd', 00H, 'x', 00H, ' ', 00H, '>', 00H, '=', 00H, ' ', 00H
	DB	'0', 00H, 00H, 00H
$SG55567 DB	'D', 00H, ':', 00H, '\', 00H, 'T', 00H, 'I', 00H, 'M', 00H
	DB	'E', 00H, '\', 00H, 'c', 00H, 'o', 00H, 'd', 00H, 'e', 00H, '\'
	DB	00H, 's', 00H, 't', 00H, 'b', 00H, '_', 00H, 't', 00H, 'r', 00H
	DB	'u', 00H, 'e', 00H, 't', 00H, 'y', 00H, 'p', 00H, 'e', 00H, '.'
	DB	00H, 'h', 00H, 00H, 00H
$SG55568 DB	'f', 00H, 'a', 00H, 'b', 00H, 's', 00H, '(', 00H, 'a', 00H
	DB	'r', 00H, 'e', 00H, 'a', 00H, ')', 00H, ' ', 00H, '<', 00H, '='
	DB	00H, ' ', 00H, '1', 00H, '.', 00H, '0', 00H, '1', 00H, 'f', 00H
	DB	00H, 00H
$SG55569 DB	'D', 00H, ':', 00H, '\', 00H, 'T', 00H, 'I', 00H, 'M', 00H
	DB	'E', 00H, '\', 00H, 'c', 00H, 'o', 00H, 'd', 00H, 'e', 00H, '\'
	DB	00H, 's', 00H, 't', 00H, 'b', 00H, '_', 00H, 't', 00H, 'r', 00H
	DB	'u', 00H, 'e', 00H, 't', 00H, 'y', 00H, 'p', 00H, 'e', 00H, '.'
	DB	00H, 'h', 00H, 00H, 00H
$SG55570 DB	's', 00H, 'y', 00H, '1', 00H, ' ', 00H, '>', 00H, ' ', 00H
	DB	'y', 00H, '_', 00H, 'f', 00H, 'i', 00H, 'n', 00H, 'a', 00H, 'l'
	DB	00H, '-', 00H, '0', 00H, '.', 00H, '0', 00H, '1', 00H, 'f', 00H
	DB	00H, 00H
$SG55637 DB	'D', 00H, ':', 00H, '\', 00H, 'T', 00H, 'I', 00H, 'M', 00H
	DB	'E', 00H, '\', 00H, 'c', 00H, 'o', 00H, 'd', 00H, 'e', 00H, '\'
	DB	00H, 's', 00H, 't', 00H, 'b', 00H, '_', 00H, 't', 00H, 'r', 00H
	DB	'u', 00H, 'e', 00H, 't', 00H, 'y', 00H, 'p', 00H, 'e', 00H, '.'
	DB	00H, 'h', 00H, 00H, 00H
$SG55638 DB	'z', 00H, '-', 00H, '>', 00H, 'd', 00H, 'i', 00H, 'r', 00H
	DB	'e', 00H, 'c', 00H, 't', 00H, 'i', 00H, 'o', 00H, 'n', 00H, 00H
	DB	00H
	ORG $+6
$SG55643 DB	'D', 00H, ':', 00H, '\', 00H, 'T', 00H, 'I', 00H, 'M', 00H
	DB	'E', 00H, '\', 00H, 'c', 00H, 'o', 00H, 'd', 00H, 'e', 00H, '\'
	DB	00H, 's', 00H, 't', 00H, 'b', 00H, '_', 00H, 't', 00H, 'r', 00H
	DB	'u', 00H, 'e', 00H, 't', 00H, 'y', 00H, 'p', 00H, 'e', 00H, '.'
	DB	00H, 'h', 00H, 00H, 00H
$SG55644 DB	'z', 00H, '-', 00H, '>', 00H, 'e', 00H, 'y', 00H, ' ', 00H
	DB	'>', 00H, '=', 00H, ' ', 00H, 's', 00H, 'c', 00H, 'a', 00H, 'n'
	DB	00H, '_', 00H, 'y', 00H, '_', 00H, 't', 00H, 'o', 00H, 'p', 00H
	DB	00H, 00H
$SG56065 DB	'D', 00H, ':', 00H, '\', 00H, 'T', 00H, 'I', 00H, 'M', 00H
	DB	'E', 00H, '\', 00H, 'c', 00H, 'o', 00H, 'd', 00H, 'e', 00H, '\'
	DB	00H, 's', 00H, 't', 00H, 'b', 00H, '_', 00H, 't', 00H, 'r', 00H
	DB	'u', 00H, 'e', 00H, 't', 00H, 'y', 00H, 'p', 00H, 'e', 00H, '.'
	DB	00H, 'h', 00H, 00H, 00H
$SG56066 DB	'x', 00H, '+', 00H, 'g', 00H, 'w', 00H, ' ', 00H, '<', 00H
	DB	' ', 00H, 'p', 00H, 'w', 00H, 00H, 00H
	ORG $+4
$SG56067 DB	'D', 00H, ':', 00H, '\', 00H, 'T', 00H, 'I', 00H, 'M', 00H
	DB	'E', 00H, '\', 00H, 'c', 00H, 'o', 00H, 'd', 00H, 'e', 00H, '\'
	DB	00H, 's', 00H, 't', 00H, 'b', 00H, '_', 00H, 't', 00H, 'r', 00H
	DB	'u', 00H, 'e', 00H, 't', 00H, 'y', 00H, 'p', 00H, 'e', 00H, '.'
	DB	00H, 'h', 00H, 00H, 00H
$SG56068 DB	'y', 00H, '+', 00H, 'g', 00H, 'h', 00H, ' ', 00H, '<', 00H
	DB	' ', 00H, 'p', 00H, 'h', 00H, 00H, 00H
	ORG $+4
$SG56125 DB	'D', 00H, ':', 00H, '\', 00H, 'T', 00H, 'I', 00H, 'M', 00H
	DB	'E', 00H, '\', 00H, 'c', 00H, 'o', 00H, 'd', 00H, 'e', 00H, '\'
	DB	00H, 's', 00H, 't', 00H, 'b', 00H, '_', 00H, 't', 00H, 'r', 00H
	DB	'u', 00H, 'e', 00H, 't', 00H, 'y', 00H, 'p', 00H, 'e', 00H, '.'
	DB	00H, 'h', 00H, 00H, 00H
$SG56126 DB	'h', 00H, '_', 00H, 'o', 00H, 'v', 00H, 'e', 00H, 'r', 00H
	DB	's', 00H, 'a', 00H, 'm', 00H, 'p', 00H, 'l', 00H, 'e', 00H, ' '
	DB	00H, '<', 00H, '=', 00H, ' ', 00H, '8', 00H, 00H, 00H
	ORG $+4
$SG56127 DB	'D', 00H, ':', 00H, '\', 00H, 'T', 00H, 'I', 00H, 'M', 00H
	DB	'E', 00H, '\', 00H, 'c', 00H, 'o', 00H, 'd', 00H, 'e', 00H, '\'
	DB	00H, 's', 00H, 't', 00H, 'b', 00H, '_', 00H, 't', 00H, 'r', 00H
	DB	'u', 00H, 'e', 00H, 't', 00H, 'y', 00H, 'p', 00H, 'e', 00H, '.'
	DB	00H, 'h', 00H, 00H, 00H
$SG56128 DB	'v', 00H, '_', 00H, 'o', 00H, 'v', 00H, 'e', 00H, 'r', 00H
	DB	's', 00H, 'a', 00H, 'm', 00H, 'p', 00H, 'l', 00H, 'e', 00H, ' '
	DB	00H, '<', 00H, '=', 00H, ' ', 00H, '8', 00H, 00H, 00H
	ORG $+4
$SG56183 DB	'D', 00H, ':', 00H, '\', 00H, 'T', 00H, 'I', 00H, 'M', 00H
	DB	'E', 00H, '\', 00H, 'c', 00H, 'o', 00H, 'd', 00H, 'e', 00H, '\'
	DB	00H, 's', 00H, 't', 00H, 'b', 00H, '_', 00H, 't', 00H, 'r', 00H
	DB	'u', 00H, 'e', 00H, 't', 00H, 'y', 00H, 'p', 00H, 'e', 00H, '.'
	DB	00H, 'h', 00H, 00H, 00H
$SG56184 DB	'p', 00H, 'i', 00H, 'x', 00H, 'e', 00H, 'l', 00H, 's', 00H
	DB	'[', 00H, 'i', 00H, ']', 00H, ' ', 00H, '=', 00H, '=', 00H, ' '
	DB	00H, '0', 00H, 00H, 00H
	ORG $+2
$SG56233 DB	'D', 00H, ':', 00H, '\', 00H, 'T', 00H, 'I', 00H, 'M', 00H
	DB	'E', 00H, '\', 00H, 'c', 00H, 'o', 00H, 'd', 00H, 'e', 00H, '\'
	DB	00H, 's', 00H, 't', 00H, 'b', 00H, '_', 00H, 't', 00H, 'r', 00H
	DB	'u', 00H, 'e', 00H, 't', 00H, 'y', 00H, 'p', 00H, 'e', 00H, '.'
	DB	00H, 'h', 00H, 00H, 00H
$SG56234 DB	'p', 00H, 'i', 00H, 'x', 00H, 'e', 00H, 'l', 00H, 's', 00H
	DB	'[', 00H, 'i', 00H, '*', 00H, 's', 00H, 't', 00H, 'r', 00H, 'i'
	DB	00H, 'd', 00H, 'e', 00H, '_', 00H, 'i', 00H, 'n', 00H, '_', 00H
	DB	'b', 00H, 'y', 00H, 't', 00H, 'e', 00H, 's', 00H, ']', 00H, ' '
	DB	00H, '=', 00H, '=', 00H, ' ', 00H, '0', 00H, 00H, 00H
	ORG $+2
$SG56713 DB	'D', 00H, ':', 00H, '\', 00H, 'T', 00H, 'I', 00H, 'M', 00H
	DB	'E', 00H, '\', 00H, 'c', 00H, 'o', 00H, 'd', 00H, 'e', 00H, '\'
	DB	00H, 's', 00H, 't', 00H, 'b', 00H, '_', 00H, 't', 00H, 'r', 00H
	DB	'u', 00H, 'e', 00H, 't', 00H, 'y', 00H, 'p', 00H, 'e', 00H, '.'
	DB	00H, 'h', 00H, 00H, 00H
$SG56714 DB	'i', 00H, ' ', 00H, '!', 00H, '=', 00H, ' ', 00H, '0', 00H
	DB	00H, 00H
	ORG $+2
$SG56815 DB	'name', 00H
	ORG $+3
$SG56868 DB	'head', 00H
	ORG $+3
$SG56870 DB	'name', 00H
CONST	ENDS
PUBLIC	__local_stdio_printf_options
PUBLIC	_vsnprintf_l
PUBLIC	_vsprintf_l
PUBLIC	sprintf
PUBLIC	stbrp_pack_rects
PUBLIC	stbrp_init_target
PUBLIC	stbrp_setup_allow_out_of_mem
PUBLIC	stbrp_setup_heuristic
PUBLIC	main
PUBLIC	?_OptionsStorage@?1??__local_stdio_printf_options@@9@4_KA ; `__local_stdio_printf_options'::`2'::_OptionsStorage
PUBLIC	__real@0000000000000000
PUBLIC	__real@3f800000
PUBLIC	__real@4030aaaaaaaaaaab
PUBLIC	__real@408f400000000000
PUBLIC	__real@412e848000000000
PUBLIC	__real@42b40000
PUBLIC	__real@44340000
PUBLIC	__real@44a00000
PUBLIC	__real@c1200000
EXTRN	memset:PROC
EXTRN	strcat:PROC
EXTRN	strcpy:PROC
EXTRN	__imp_GetLastError:PROC
EXTRN	__imp_QueryPerformanceCounter:PROC
EXTRN	__imp_QueryPerformanceFrequency:PROC
EXTRN	__imp_Sleep:PROC
EXTRN	__imp_FreeLibrary:PROC
EXTRN	__imp_GetProcAddress:PROC
EXTRN	__imp_LoadLibraryA:PROC
EXTRN	__imp_CopyFileA:PROC
EXTRN	__imp_GetDC:PROC
EXTRN	__imp_timeBeginPeriod:PROC
EXTRN	__imp_gladLoadGL:PROC
EXTRN	glfwInit:PROC
EXTRN	glfwGetPrimaryMonitor:PROC
EXTRN	glfwGetVideoMode:PROC
EXTRN	glfwWindowHint:PROC
EXTRN	glfwCreateWindow:PROC
EXTRN	glfwDestroyWindow:PROC
EXTRN	glfwWindowShouldClose:PROC
EXTRN	glfwGetWindowSize:PROC
EXTRN	glfwFocusWindow:PROC
EXTRN	glfwSetWindowRefreshCallback:PROC
EXTRN	glfwSetWindowFocusCallback:PROC
EXTRN	glfwPollEvents:PROC
EXTRN	glfwSetKeyCallback:PROC
EXTRN	glfwSetCharCallback:PROC
EXTRN	glfwSetMouseButtonCallback:PROC
EXTRN	glfwSetScrollCallback:PROC
EXTRN	glfwMakeContextCurrent:PROC
EXTRN	glfwGetCurrentContext:PROC
EXTRN	glfwGetProcAddress:PROC
EXTRN	glfwGetWin32Window:PROC
EXTRN	__imp___stdio_common_vsprintf:PROC
EXTRN	__imp_calloc:PROC
EXTRN	__imp_malloc:PROC
EXTRN	__imp_qsort:PROC
EXTRN	__imp__wassert:PROC
EXTRN	LoadFileData:PROC
EXTRN	FileExists:PROC
EXTRN	GetApplicationDirectory:PROC
EXTRN	GetFileModTime:PROC
EXTRN	__GSHandlerCheck:PROC
EXTRN	__security_check_cookie:PROC
EXTRN	__imp_glad_glBlendFunc:QWORD
EXTRN	__imp_glad_glBlendFuncSeparate:QWORD
EXTRN	__imp_glad_glEnable:QWORD
EXTRN	__imp_glad_glGetError:QWORD
EXTRN	__imp_glad_glStencilOp:QWORD
EXTRN	__imp_glad_glViewport:QWORD
EXTRN	__security_cookie:QWORD
EXTRN	_fltused:DWORD
;	COMDAT ?_OptionsStorage@?1??__local_stdio_printf_options@@9@4_KA
_BSS	SEGMENT
?_OptionsStorage@?1??__local_stdio_printf_options@@9@4_KA DQ 01H DUP (?) ; `__local_stdio_printf_options'::`2'::_OptionsStorage
_BSS	ENDS
_BSS	SEGMENT
?GL_ERROR_VALUE@@3HA DD 01H DUP (?)			; GL_ERROR_VALUE
	ALIGN	8

?AllWindows@@3PAPEAUGLFWwindow@@A DQ 01H DUP (?)	; AllWindows
?WindowsFocused@@3PA_NA DB 01H DUP (?)			; WindowsFocused
	ALIGN	4

?CurrentWindowIndex@@3HA DD 01H DUP (?)			; CurrentWindowIndex
?AppData@@3PEAUD_App_Data@@EA DQ 01H DUP (?)		; AppData
?_GlobalData@@3UD_App_Data@@A DB 0ad8H DUP (?)		; _GlobalData
_BSS	ENDS
;	COMDAT pdata
pdata	SEGMENT
$pdata$_vsnprintf_l DD imagerel $LN5
	DD	imagerel $LN5+118
	DD	imagerel $unwind$_vsnprintf_l
pdata	ENDS
;	COMDAT pdata
pdata	SEGMENT
$pdata$_vsprintf_l DD imagerel $LN3
	DD	imagerel $LN3+66
	DD	imagerel $unwind$_vsprintf_l
pdata	ENDS
;	COMDAT pdata
pdata	SEGMENT
$pdata$sprintf DD imagerel $LN3
	DD	imagerel $LN3+79
	DD	imagerel $unwind$sprintf
pdata	ENDS
pdata	SEGMENT
$pdata$stbrp_pack_rects DD imagerel $LN20
	DD	imagerel $LN20+707
	DD	imagerel $unwind$stbrp_pack_rects
$pdata$stbrp_init_target DD imagerel $LN6
	DD	imagerel $LN6+404
	DD	imagerel $unwind$stbrp_init_target
$pdata$stbrp_setup_heuristic DD imagerel $LN9
	DD	imagerel $LN9+129
	DD	imagerel $unwind$stbrp_setup_heuristic
$pdata$?stbrp__skyline_find_min_y@@YAHPEAUstbrp_context@@PEAUstbrp_node@@HHPEAH@Z DD imagerel ?stbrp__skyline_find_min_y@@YAHPEAUstbrp_context@@PEAUstbrp_node@@HHPEAH@Z
	DD	imagerel ?stbrp__skyline_find_min_y@@YAHPEAUstbrp_context@@PEAUstbrp_node@@HHPEAH@Z+507
	DD	imagerel $unwind$?stbrp__skyline_find_min_y@@YAHPEAUstbrp_context@@PEAUstbrp_node@@HHPEAH@Z
$pdata$?stbrp__skyline_find_best_pos@@YA?AUstbrp__findresult@@PEAUstbrp_context@@HH@Z DD imagerel ?stbrp__skyline_find_best_pos@@YA?AUstbrp__findresult@@PEAUstbrp_context@@HH@Z
	DD	imagerel ?stbrp__skyline_find_best_pos@@YA?AUstbrp__findresult@@PEAUstbrp_context@@HH@Z+1148
	DD	imagerel $unwind$?stbrp__skyline_find_best_pos@@YA?AUstbrp__findresult@@PEAUstbrp_context@@HH@Z
$pdata$?stbrp__skyline_pack_rectangle@@YA?AUstbrp__findresult@@PEAUstbrp_context@@HH@Z DD imagerel ?stbrp__skyline_pack_rectangle@@YA?AUstbrp__findresult@@PEAUstbrp_context@@HH@Z
	DD	imagerel ?stbrp__skyline_pack_rectangle@@YA?AUstbrp__findresult@@PEAUstbrp_context@@HH@Z+550
	DD	imagerel $unwind$?stbrp__skyline_pack_rectangle@@YA?AUstbrp__findresult@@PEAUstbrp_context@@HH@Z
$pdata$?rect_height_compare@@YAHPEBX0@Z DD imagerel ?rect_height_compare@@YAHPEBX0@Z
	DD	imagerel ?rect_height_compare@@YAHPEBX0@Z+162
	DD	imagerel $unwind$?rect_height_compare@@YAHPEBX0@Z
$pdata$?rect_original_order@@YAHPEBX0@Z DD imagerel ?rect_original_order@@YAHPEBX0@Z
	DD	imagerel ?rect_original_order@@YAHPEBX0@Z+112
	DD	imagerel $unwind$?rect_original_order@@YAHPEBX0@Z
$pdata$stbtt_InitFont DD imagerel stbtt_InitFont
	DD	imagerel stbtt_InitFont+44
	DD	imagerel $unwind$stbtt_InitFont
$pdata$?stbtt__buf_get8@@YAEPEAUstbtt__buf@@@Z DD imagerel ?stbtt__buf_get8@@YAEPEAUstbtt__buf@@@Z
	DD	imagerel ?stbtt__buf_get8@@YAEPEAUstbtt__buf@@@Z+82
	DD	imagerel $unwind$?stbtt__buf_get8@@YAEPEAUstbtt__buf@@@Z
$pdata$?stbtt__buf_seek@@YAXPEAUstbtt__buf@@H@Z DD imagerel ?stbtt__buf_seek@@YAXPEAUstbtt__buf@@H@Z
	DD	imagerel ?stbtt__buf_seek@@YAXPEAUstbtt__buf@@H@Z+122
	DD	imagerel $unwind$?stbtt__buf_seek@@YAXPEAUstbtt__buf@@H@Z
$pdata$?stbtt__buf_skip@@YAXPEAUstbtt__buf@@H@Z DD imagerel ?stbtt__buf_skip@@YAXPEAUstbtt__buf@@H@Z
	DD	imagerel ?stbtt__buf_skip@@YAXPEAUstbtt__buf@@H@Z+43
	DD	imagerel $unwind$?stbtt__buf_skip@@YAXPEAUstbtt__buf@@H@Z
$pdata$?stbtt__buf_get@@YAIPEAUstbtt__buf@@H@Z DD imagerel ?stbtt__buf_get@@YAIPEAUstbtt__buf@@H@Z
	DD	imagerel ?stbtt__buf_get@@YAIPEAUstbtt__buf@@H@Z+140
	DD	imagerel $unwind$?stbtt__buf_get@@YAIPEAUstbtt__buf@@H@Z
$pdata$?stbtt__new_buf@@YA?AUstbtt__buf@@PEBX_K@Z DD imagerel ?stbtt__new_buf@@YA?AUstbtt__buf@@PEBX_K@Z
	DD	imagerel ?stbtt__new_buf@@YA?AUstbtt__buf@@PEBX_K@Z+118
	DD	imagerel $unwind$?stbtt__new_buf@@YA?AUstbtt__buf@@PEBX_K@Z
$pdata$?stbtt__buf_range@@YA?AUstbtt__buf@@PEBU1@HH@Z DD imagerel ?stbtt__buf_range@@YA?AUstbtt__buf@@PEBU1@HH@Z
	DD	imagerel ?stbtt__buf_range@@YA?AUstbtt__buf@@PEBU1@HH@Z+236
	DD	imagerel $unwind$?stbtt__buf_range@@YA?AUstbtt__buf@@PEBU1@HH@Z
$pdata$?stbtt__cff_get_index@@YA?AUstbtt__buf@@PEAU1@@Z DD imagerel ?stbtt__cff_get_index@@YA?AUstbtt__buf@@PEAU1@@Z
	DD	imagerel ?stbtt__cff_get_index@@YA?AUstbtt__buf@@PEAU1@@Z+250
	DD	imagerel $unwind$?stbtt__cff_get_index@@YA?AUstbtt__buf@@PEAU1@@Z
$pdata$?stbtt__cff_int@@YAIPEAUstbtt__buf@@@Z DD imagerel ?stbtt__cff_int@@YAIPEAUstbtt__buf@@@Z
	DD	imagerel ?stbtt__cff_int@@YAIPEAUstbtt__buf@@@Z+289
	DD	imagerel $unwind$?stbtt__cff_int@@YAIPEAUstbtt__buf@@@Z
$pdata$?stbtt__cff_skip_operand@@YAXPEAUstbtt__buf@@@Z DD imagerel ?stbtt__cff_skip_operand@@YAXPEAUstbtt__buf@@@Z
	DD	imagerel ?stbtt__cff_skip_operand@@YAXPEAUstbtt__buf@@@Z+165
	DD	imagerel $unwind$?stbtt__cff_skip_operand@@YAXPEAUstbtt__buf@@@Z
$pdata$?stbtt__dict_get@@YA?AUstbtt__buf@@PEAU1@H@Z DD imagerel ?stbtt__dict_get@@YA?AUstbtt__buf@@PEAU1@H@Z
	DD	imagerel ?stbtt__dict_get@@YA?AUstbtt__buf@@PEAU1@H@Z+370
	DD	imagerel $unwind$?stbtt__dict_get@@YA?AUstbtt__buf@@PEAU1@H@Z
$pdata$?stbtt__dict_get_ints@@YAXPEAUstbtt__buf@@HHPEAI@Z DD imagerel ?stbtt__dict_get_ints@@YAXPEAUstbtt__buf@@HHPEAI@Z
	DD	imagerel ?stbtt__dict_get_ints@@YAXPEAUstbtt__buf@@HHPEAI@Z+170
	DD	imagerel $unwind$?stbtt__dict_get_ints@@YAXPEAUstbtt__buf@@HHPEAI@Z
$pdata$?stbtt__cff_index_get@@YA?AUstbtt__buf@@U1@H@Z DD imagerel ?stbtt__cff_index_get@@YA?AUstbtt__buf@@U1@H@Z
	DD	imagerel ?stbtt__cff_index_get@@YA?AUstbtt__buf@@U1@H@Z+324
	DD	imagerel $unwind$?stbtt__cff_index_get@@YA?AUstbtt__buf@@U1@H@Z
$pdata$?stbtt__find_table@@YAIPEAEIPEBD@Z DD imagerel ?stbtt__find_table@@YAIPEAEIPEBD@Z
	DD	imagerel ?stbtt__find_table@@YAIPEAEIPEBD@Z+349
	DD	imagerel $unwind$?stbtt__find_table@@YAIPEAEIPEBD@Z
$pdata$?stbtt__get_subrs@@YA?AUstbtt__buf@@U1@0@Z DD imagerel ?stbtt__get_subrs@@YA?AUstbtt__buf@@U1@0@Z
	DD	imagerel ?stbtt__get_subrs@@YA?AUstbtt__buf@@U1@0@Z+488
	DD	imagerel $unwind$?stbtt__get_subrs@@YA?AUstbtt__buf@@U1@0@Z
$pdata$?stbtt_InitFont_internal@@YAHPEAUstbtt_fontinfo@@PEAEH@Z DD imagerel ?stbtt_InitFont_internal@@YAHPEAUstbtt_fontinfo@@PEAEH@Z
	DD	imagerel ?stbtt_InitFont_internal@@YAHPEAUstbtt_fontinfo@@PEAEH@Z+2247
	DD	imagerel $unwind$?stbtt_InitFont_internal@@YAHPEAUstbtt_fontinfo@@PEAEH@Z
$pdata$?FocusCallback@@YAXPEAUGLFWwindow@@H@Z DD imagerel ?FocusCallback@@YAXPEAUGLFWwindow@@H@Z
	DD	imagerel ?FocusCallback@@YAXPEAUGLFWwindow@@H@Z+130
	DD	imagerel $unwind$?FocusCallback@@YAXPEAUGLFWwindow@@H@Z
pdata	ENDS
;	COMDAT pdata
pdata	SEGMENT
$pdata$??__EMemberMeta_D_Array@@YAXXZ DD imagerel ??__EMemberMeta_D_Array@@YAXXZ
	DD	imagerel ??__EMemberMeta_D_Array@@YAXXZ+867
	DD	imagerel $unwind$??__EMemberMeta_D_Array@@YAXXZ
pdata	ENDS
;	COMDAT pdata
pdata	SEGMENT
$pdata$??__E_TypeStructMeta_@@YAXXZ DD imagerel ??__E_TypeStructMeta_@@YAXXZ
	DD	imagerel ??__E_TypeStructMeta_@@YAXXZ+301
	DD	imagerel $unwind$??__E_TypeStructMeta_@@YAXXZ
pdata	ENDS
pdata	SEGMENT
$pdata$?CounterStamp@@YA_JXZ DD imagerel ?CounterStamp@@YA_JXZ
	DD	imagerel ?CounterStamp@@YA_JXZ+45
	DD	imagerel $unwind$?CounterStamp@@YA_JXZ
$pdata$?EndTimeStamp@@YAN_J@Z DD imagerel ?EndTimeStamp@@YAN_J@Z
	DD	imagerel ?EndTimeStamp@@YAN_J@Z+112
	DD	imagerel $unwind$?EndTimeStamp@@YAN_J@Z
$pdata$?CombineFilePath@@YAXPEBDPEAD@Z DD imagerel ?CombineFilePath@@YAXPEBDPEAD@Z
	DD	imagerel ?CombineFilePath@@YAXPEBDPEAD@Z+61
	DD	imagerel $unwind$?CombineFilePath@@YAXPEBDPEAD@Z
$pdata$main DD	imagerel $LN39
	DD	imagerel $LN39+2871
	DD	imagerel $unwind$main
pdata	ENDS
CRT$XCU	SEGMENT
?MemberMeta_D_Array$initializer$@@3P6AXXZEA DQ FLAT:??__EMemberMeta_D_Array@@YAXXZ ; MemberMeta_D_Array$initializer$
CRT$XCU	ENDS
;	COMDAT __real@c1200000
CONST	SEGMENT
__real@c1200000 DD 0c1200000r			; -10
CONST	ENDS
;	COMDAT __real@44a00000
CONST	SEGMENT
__real@44a00000 DD 044a00000r			; 1280
CONST	ENDS
;	COMDAT __real@44340000
CONST	SEGMENT
__real@44340000 DD 044340000r			; 720
CONST	ENDS
;	COMDAT __real@42b40000
CONST	SEGMENT
__real@42b40000 DD 042b40000r			; 90
CONST	ENDS
;	COMDAT __real@412e848000000000
CONST	SEGMENT
__real@412e848000000000 DQ 0412e848000000000r	; 1e+06
CONST	ENDS
;	COMDAT __real@408f400000000000
CONST	SEGMENT
__real@408f400000000000 DQ 0408f400000000000r	; 1000
CONST	ENDS
;	COMDAT __real@4030aaaaaaaaaaab
CONST	SEGMENT
__real@4030aaaaaaaaaaab DQ 04030aaaaaaaaaaabr	; 16.6667
CONST	ENDS
;	COMDAT __real@3f800000
CONST	SEGMENT
__real@3f800000 DD 03f800000r			; 1
CONST	ENDS
;	COMDAT __real@0000000000000000
CONST	SEGMENT
__real@0000000000000000 DQ 00000000000000000r	; 0
CONST	ENDS
_DATA	SEGMENT
?MemberMetaCount_D_Array@@3HA DD 06H			; MemberMetaCount_D_Array
	ORG $+12
?MemberMeta_D_Array@@3PAU_MemberMetaData@@A DB 'DataArray', 00H ; MemberMeta_D_Array
	ORG $+54
	DD	00H
	DB	00H
	DB	01H
	DB	00H
	ORG $+1
	DD	0dH
	DB	'void', 00H
	ORG $+59
	DD	00H
	DD	00H
	ORG $+764
?_TypeStructMeta_@@3PAU_StructMetaData@@A	ORG $+16	; _TypeStructMeta_
	ORG $+16
	ORG $+16
	ORG $+16
	ORG $+16
	ORG $+16
	ORG $+16
	ORG $+16
	ORG $+16
	ORG $+16
	ORG $+16
	ORG $+16
	ORG $+16
	ORG $+16
	ORG $+16
	ORG $+16
	DQ	FLAT:?MemberMeta_D_Array@@3PAU_MemberMetaData@@A
	ORG $+248
_DATA	ENDS
voltbl	SEGMENT
_volmd	DD	0ffffffffH
	DDSymXIndex: 	FLAT:main
	DD	014H
	DD	0b1dH
voltbl	ENDS
;	COMDAT xdata
xdata	SEGMENT
$unwind$??__E_TypeStructMeta_@@YAXXZ DD 010201H
	DD	07002H
xdata	ENDS
;	COMDAT xdata
xdata	SEGMENT
$unwind$??__EMemberMeta_D_Array@@YAXXZ DD 020301H
	DD	060027003H
xdata	ENDS
xdata	SEGMENT
$unwind$stbrp_pack_rects DD 031501H
	DD	07011c215H
	DD	06010H
$unwind$stbrp_init_target DD 011701H
	DD	06217H
$unwind$stbrp_setup_heuristic DD 010d01H
	DD	0620dH
$unwind$?stbrp__skyline_find_min_y@@YAHPEAUstbrp_context@@PEAUstbrp_node@@HHPEAH@Z DD 011801H
	DD	08218H
$unwind$?stbrp__skyline_find_best_pos@@YA?AUstbrp__findresult@@PEAUstbrp_context@@HH@Z DD 041d01H
	DD	013011dH
	DD	060157016H
$unwind$?stbrp__skyline_pack_rectangle@@YA?AUstbrp__findresult@@PEAUstbrp_context@@HH@Z DD 031a01H
	DD	07016e21aH
	DD	06015H
$unwind$?rect_height_compare@@YAHPEBX0@Z DD 010e01H
	DD	0420eH
$unwind$?rect_original_order@@YAHPEBX0@Z DD 010e01H
	DD	0420eH
$unwind$stbtt_InitFont DD 011301H
	DD	04213H
$unwind$?stbtt__buf_get8@@YAEPEAUstbtt__buf@@@Z DD 010901H
	DD	02209H
$unwind$?stbtt__buf_seek@@YAXPEAUstbtt__buf@@H@Z DD 010d01H
	DD	0620dH
$unwind$?stbtt__buf_skip@@YAXPEAUstbtt__buf@@H@Z DD 010d01H
	DD	0420dH
$unwind$?stbtt__buf_get@@YAIPEAUstbtt__buf@@H@Z DD 010d01H
	DD	0620dH
$unwind$?stbtt__new_buf@@YA?AUstbtt__buf@@PEBX_K@Z DD 031501H
	DD	070116215H
	DD	06010H
$unwind$?stbtt__buf_range@@YA?AUstbtt__buf@@PEBU1@HH@Z DD 031a01H
	DD	07016a21aH
	DD	06015H
$unwind$?stbtt__cff_get_index@@YA?AUstbtt__buf@@PEAU1@@Z DD 031001H
	DD	0700ca210H
	DD	0600bH
$unwind$?stbtt__cff_int@@YAIPEAUstbtt__buf@@@Z DD 010901H
	DD	06209H
$unwind$?stbtt__cff_skip_operand@@YAXPEAUstbtt__buf@@@Z DD 010901H
	DD	06209H
$unwind$?stbtt__dict_get@@YA?AUstbtt__buf@@PEAU1@H@Z DD 031501H
	DD	07011e215H
	DD	06010H
$unwind$?stbtt__dict_get_ints@@YAXPEAUstbtt__buf@@HHPEAI@Z DD 031901H
	DD	07015c219H
	DD	06014H
$unwind$?stbtt__cff_index_get@@YA?AUstbtt__buf@@U1@H@Z DD 031501H
	DD	07011a215H
	DD	06010H
$unwind$?stbtt__find_table@@YAIPEAEIPEBD@Z DD 011201H
	DD	06212H
$unwind$?stbtt__get_subrs@@YA?AUstbtt__buf@@U1@0@Z DD 041801H
	DD	0190118H
	DD	060107011H
$unwind$?stbtt_InitFont_internal@@YAHPEAUstbtt_fontinfo@@PEAEH@Z DD 041801H
	DD	04b0118H
	DD	060107011H
$unwind$?FocusCallback@@YAXPEAUGLFWwindow@@H@Z DD 010d01H
	DD	0620dH
$unwind$?CounterStamp@@YA_JXZ DD 020601H
	DD	070025206H
$unwind$?EndTimeStamp@@YAN_J@Z DD 020a01H
	DD	07006520aH
$unwind$?CombineFilePath@@YAXPEBDPEAD@Z DD 010e01H
	DD	0420eH
$unwind$main DD	041c19H
	DD	013f010aH
	DD	060027003H
	DD	imagerel __GSHandlerCheck
	DD	09e0H
xdata	ENDS
;	COMDAT xdata
xdata	SEGMENT
$unwind$sprintf DD 011801H
	DD	06218H
xdata	ENDS
;	COMDAT xdata
xdata	SEGMENT
$unwind$_vsprintf_l DD 011801H
	DD	06218H
xdata	ENDS
;	COMDAT xdata
xdata	SEGMENT
$unwind$_vsnprintf_l DD 011801H
	DD	08218H
xdata	ENDS
CRT$XCU	SEGMENT
?_TypeStructMeta_$initializer$@@3P6AXXZEA DQ FLAT:??__E_TypeStructMeta_@@YAXXZ ; _TypeStructMeta_$initializer$
CRT$XCU	ENDS
; Function compile flags: /Odtp
_TEXT	SEGMENT
NoWindowFocus$1 = 48
WindowIndex$2 = 52
WindowIndex$3 = 56
i$4 = 60
WindowSizeHeight$5 = 64
WindowSizeWidth$6 = 68
ModuleModTime$ = 72
InterfaceModule$ = 80
WindowToCallback$7 = 88
GameLoad$ = 96
FontDataSize$ = 104
$T8 = 108
LoadGameName$ = 120
SleepTime$9 = 128
CopyFailed$10 = 136
WorkDirectory$ = 144
FontData$ = 152
DLLName$ = 160
CopyDLLName$ = 168
mode$11 = 176
$T12 = 184
$T13 = 200
FontDirectory$ = 224
DLLPath$ = 480
CopyDLLPath$ = 1504
__$ArrayPad$ = 2528
main	PROC
; File D:\TIME\code\d_main.cpp
; Line 14
$LN39:
	push	rsi
	push	rdi
	sub	rsp, 2552				; 000009f8H
	mov	rax, QWORD PTR __security_cookie
	xor	rax, rsp
	mov	QWORD PTR __$ArrayPad$[rsp], rax
; Line 15
	mov	ecx, 1
	call	QWORD PTR __imp_timeBeginPeriod
; Line 17
	lea	rax, OFFSET FLAT:?_GlobalData@@3UD_App_Data@@A
	mov	QWORD PTR ?AppData@@3PEAUD_App_Data@@EA, rax
; Line 19
	movss	xmm0, DWORD PTR __real@44a00000
	movss	DWORD PTR $T8[rsp], xmm0
	movss	xmm0, DWORD PTR __real@44340000
	movss	DWORD PTR $T8[rsp+4], xmm0
	mov	rax, QWORD PTR ?AppData@@3PEAUD_App_Data@@EA
	mov	rcx, QWORD PTR $T8[rsp]
	mov	QWORD PTR [rax+1720], rcx
; Line 21
	call	GetApplicationDirectory
	mov	rcx, QWORD PTR ?AppData@@3PEAUD_App_Data@@EA
	add	rcx, 1740				; 000006ccH
	mov	rdx, rax
	call	sprintf
; Line 23
	call	glfwInit
; Line 25
	xor	edx, edx
	mov	ecx, 135184				; 00021010H
	call	glfwWindowHint
; Line 26
	mov	edx, 4
	mov	ecx, 139266				; 00022002H
	call	glfwWindowHint
; Line 27
	mov	edx, 5
	mov	ecx, 139267				; 00022003H
	call	glfwWindowHint
; Line 28
	mov	edx, 1
	mov	ecx, 139271				; 00022007H
	call	glfwWindowHint
; Line 29
	mov	edx, 196609				; 00030001H
	mov	ecx, 139265				; 00022001H
	call	glfwWindowHint
; Line 30
	mov	edx, 204801				; 00032001H
	mov	ecx, 139272				; 00022008H
	call	glfwWindowHint
; Line 31
	xor	edx, edx
	mov	ecx, 135173				; 00021005H
	call	glfwWindowHint
; Line 32
	mov	rax, QWORD PTR ?AppData@@3PEAUD_App_Data@@EA
	cvttss2si eax, DWORD PTR [rax+1724]
	mov	rcx, QWORD PTR ?AppData@@3PEAUD_App_Data@@EA
	cvttss2si ecx, DWORD PTR [rcx+1720]
	mov	QWORD PTR [rsp+32], 0
	xor	r9d, r9d
	lea	r8, OFFSET FLAT:$SG62167
	mov	edx, eax
	call	glfwCreateWindow
	xor	edx, edx
	mov	rcx, rax
	call	?SetWindow@@YAXPEAUGLFWwindow@@H@Z	; SetWindow
; Line 34
	xor	ecx, ecx
	call	?GetWindow@@YAPEAUGLFWwindow@@H@Z	; GetWindow
	mov	rcx, rax
	call	glfwMakeContextCurrent
; Line 36
	lea	rcx, OFFSET FLAT:glfwGetProcAddress
	call	QWORD PTR __imp_gladLoadGL
; Line 37
	mov	edx, 771				; 00000303H
	mov	ecx, 770				; 00000302H
	mov	rax, QWORD PTR __imp_glad_glBlendFunc
	call	QWORD PTR [rax]
; Line 38
	mov	r9d, 771				; 00000303H
	mov	r8d, 1
	mov	edx, 771				; 00000303H
	mov	ecx, 770				; 00000302H
	mov	rax, QWORD PTR __imp_glad_glBlendFuncSeparate
	call	QWORD PTR [rax]
; Line 39
	mov	ecx, 3042				; 00000be2H
	mov	rax, QWORD PTR __imp_glad_glEnable
	call	QWORD PTR [rax]
; Line 41
	mov	ecx, 2960				; 00000b90H
	mov	rax, QWORD PTR __imp_glad_glEnable
	call	QWORD PTR [rax]
; Line 42
	mov	r8d, 7681				; 00001e01H
	mov	edx, 7681				; 00001e01H
	mov	ecx, 7680				; 00001e00H
	mov	rax, QWORD PTR __imp_glad_glStencilOp
	call	QWORD PTR [rax]
	npad	1
; Line 44
	mov	rax, QWORD PTR __imp_glad_glGetError
	call	QWORD PTR [rax]
	mov	DWORD PTR ?GL_ERROR_VALUE@@3HA, eax
	cmp	DWORD PTR ?GL_ERROR_VALUE@@3HA, 0
	je	SHORT $LN15@main
	mov	DWORD PTR ds:0, 1
$LN15@main:
; Line 46
	xor	ecx, ecx
	call	?GetWindow@@YAPEAUGLFWwindow@@H@Z	; GetWindow
	mov	rcx, rax
	call	glfwFocusWindow
; Line 50
	xor	ecx, ecx
	call	?GetWindow@@YAPEAUGLFWwindow@@H@Z	; GetWindow
	mov	rcx, QWORD PTR ?AppData@@3PEAUD_App_Data@@EA
	mov	QWORD PTR [rcx+1712], rax
; Line 51
	mov	eax, 1
	imul	rax, rax, 0
	lea	rcx, OFFSET FLAT:?WindowsFocused@@3PA_NA
	mov	BYTE PTR [rcx+rax], 1
; Line 53
	xor	ecx, ecx
	call	?GetWindow@@YAPEAUGLFWwindow@@H@Z	; GetWindow
	mov	rcx, rax
	call	glfwMakeContextCurrent
	npad	1
; Line 55
	mov	DWORD PTR WindowIndex$3[rsp], 0
	jmp	SHORT $LN4@main
$LN2@main:
	mov	eax, DWORD PTR WindowIndex$3[rsp]
	inc	eax
	mov	DWORD PTR WindowIndex$3[rsp], eax
$LN4@main:
	cmp	DWORD PTR WindowIndex$3[rsp], 1
	jge	SHORT $LN3@main
; Line 57
	mov	ecx, DWORD PTR WindowIndex$3[rsp]
	call	?GetWindow@@YAPEAUGLFWwindow@@H@Z	; GetWindow
	mov	QWORD PTR WindowToCallback$7[rsp], rax
; Line 58
	lea	rdx, OFFSET FLAT:?MouseScrollCallback@@YAXPEAUGLFWwindow@@NN@Z ; MouseScrollCallback
	mov	rcx, QWORD PTR WindowToCallback$7[rsp]
	call	glfwSetScrollCallback
; Line 59
	lea	rdx, OFFSET FLAT:?CharCallback@@YAXPEAUGLFWwindow@@I@Z ; CharCallback
	mov	rcx, QWORD PTR WindowToCallback$7[rsp]
	call	glfwSetCharCallback
; Line 60
	lea	rdx, OFFSET FLAT:?KeyCallback@@YAXPEAUGLFWwindow@@HHHH@Z ; KeyCallback
	mov	rcx, QWORD PTR WindowToCallback$7[rsp]
	call	glfwSetKeyCallback
; Line 61
	lea	rdx, OFFSET FLAT:?MouseCallback@@YAXPEAUGLFWwindow@@HHH@Z ; MouseCallback
	mov	rcx, QWORD PTR WindowToCallback$7[rsp]
	call	glfwSetMouseButtonCallback
; Line 62
	lea	rdx, OFFSET FLAT:?FocusCallback@@YAXPEAUGLFWwindow@@H@Z ; FocusCallback
	mov	rcx, QWORD PTR WindowToCallback$7[rsp]
	call	glfwSetWindowFocusCallback
; Line 63
	lea	rdx, OFFSET FLAT:?RefreshCallback@@YAXPEAUGLFWwindow@@@Z ; RefreshCallback
	mov	rcx, QWORD PTR WindowToCallback$7[rsp]
	call	glfwSetWindowRefreshCallback
	npad	1
; Line 64
	jmp	$LN2@main
$LN3@main:
; Line 66
	movss	xmm0, DWORD PTR __real@c1200000
	movss	DWORD PTR $T12[rsp], xmm0
	xorps	xmm0, xmm0
	movss	DWORD PTR $T12[rsp+4], xmm0
	xorps	xmm0, xmm0
	movss	DWORD PTR $T12[rsp+8], xmm0
	mov	rax, QWORD PTR ?AppData@@3PEAUD_App_Data@@EA
	lea	rcx, QWORD PTR $T12[rsp]
	lea	rdi, QWORD PTR [rax+104]
	mov	rsi, rcx
	mov	ecx, 12
	rep movsb
; Line 67
	mov	rax, QWORD PTR ?AppData@@3PEAUD_App_Data@@EA
	mov	rcx, QWORD PTR ?AppData@@3PEAUD_App_Data@@EA
	lea	rdi, QWORD PTR [rax+116]
	lea	rsi, QWORD PTR [rcx+104]
	mov	ecx, 12
	rep movsb
; Line 68
	mov	rax, QWORD PTR ?AppData@@3PEAUD_App_Data@@EA
	movss	xmm0, DWORD PTR [rax+124]
	addss	xmm0, DWORD PTR __real@3f800000
	mov	rax, QWORD PTR ?AppData@@3PEAUD_App_Data@@EA
	movss	DWORD PTR [rax+124], xmm0
; Line 69
	mov	rax, QWORD PTR ?AppData@@3PEAUD_App_Data@@EA
	mov	DWORD PTR [rax+144], 0
; Line 70
	xorps	xmm0, xmm0
	movss	DWORD PTR $T13[rsp], xmm0
	movss	xmm0, DWORD PTR __real@3f800000
	movss	DWORD PTR $T13[rsp+4], xmm0
	xorps	xmm0, xmm0
	movss	DWORD PTR $T13[rsp+8], xmm0
	mov	rax, QWORD PTR ?AppData@@3PEAUD_App_Data@@EA
	lea	rcx, QWORD PTR $T13[rsp]
	lea	rdi, QWORD PTR [rax+128]
	mov	rsi, rcx
	mov	ecx, 12
	rep movsb
; Line 71
	mov	rax, QWORD PTR ?AppData@@3PEAUD_App_Data@@EA
	movss	xmm0, DWORD PTR __real@42b40000
	movss	DWORD PTR [rax+140], xmm0
; Line 73
	mov	DWORD PTR FontDataSize$[rsp], 0
; Line 75
	mov	rax, QWORD PTR ?AppData@@3PEAUD_App_Data@@EA
	mov	DWORD PTR [rax+460], 64			; 00000040H
; Line 76
	mov	ecx, 81920				; 00014000H
	call	QWORD PTR __imp_malloc
	mov	r8d, 81920				; 00014000H
	xor	edx, edx
	mov	rcx, rax
	call	memset
	mov	rcx, QWORD PTR ?AppData@@3PEAUD_App_Data@@EA
	mov	QWORD PTR [rcx+464], rax
; Line 77
	mov	ecx, 1024				; 00000400H
	call	QWORD PTR __imp_malloc
	mov	r8d, 1024				; 00000400H
	xor	edx, edx
	mov	rcx, rax
	call	memset
	mov	rcx, QWORD PTR ?AppData@@3PEAUD_App_Data@@EA
	mov	QWORD PTR [rcx+480], rax
; Line 78
	mov	ecx, 4096				; 00001000H
	call	QWORD PTR __imp_malloc
	mov	r8d, 4096				; 00001000H
	xor	edx, edx
	mov	rcx, rax
	call	memset
	mov	rcx, QWORD PTR ?AppData@@3PEAUD_App_Data@@EA
	mov	QWORD PTR [rcx+560], rax
; Line 80
	mov	rax, QWORD PTR ?AppData@@3PEAUD_App_Data@@EA
	mov	DWORD PTR [rax+440], 2048		; 00000800H
; Line 81
	mov	rax, QWORD PTR ?AppData@@3PEAUD_App_Data@@EA
	mov	DWORD PTR [rax+444], 2048		; 00000800H
; Line 82
	mov	rax, QWORD PTR ?AppData@@3PEAUD_App_Data@@EA
	mov	DWORD PTR [rax+448], 1
; Line 83
	mov	rax, QWORD PTR ?AppData@@3PEAUD_App_Data@@EA
	mov	DWORD PTR [rax+452], 1
; Line 84
	mov	rax, QWORD PTR ?AppData@@3PEAUD_App_Data@@EA
	mov	rcx, QWORD PTR ?AppData@@3PEAUD_App_Data@@EA
	mov	eax, DWORD PTR [rax+440]
	imul	eax, DWORD PTR [rcx+444]
	cdqe
	mov	rdx, rax
	mov	ecx, 1
	call	QWORD PTR __imp_calloc
	mov	rcx, QWORD PTR ?AppData@@3PEAUD_App_Data@@EA
	mov	QWORD PTR [rcx+432], rax
; Line 86
	lea	rax, QWORD PTR FontDirectory$[rsp]
	mov	rdi, rax
	xor	eax, eax
	mov	ecx, 256				; 00000100H
	rep stosb
; Line 87
	call	GetApplicationDirectory
	mov	QWORD PTR WorkDirectory$[rsp], rax
; Line 88
	mov	rdx, QWORD PTR WorkDirectory$[rsp]
	lea	rcx, QWORD PTR FontDirectory$[rsp]
	call	strcpy
; Line 89
	lea	rdx, OFFSET FLAT:$SG62169
	lea	rcx, QWORD PTR FontDirectory$[rsp]
	call	strcat
; Line 90
	lea	rdx, QWORD PTR FontDataSize$[rsp]
	lea	rcx, QWORD PTR FontDirectory$[rsp]
	call	LoadFileData
	mov	QWORD PTR FontData$[rsp], rax
; Line 92
	mov	rax, QWORD PTR ?AppData@@3PEAUD_App_Data@@EA
	mov	DWORD PTR [rax+456], 1
; Line 94
	mov	rax, QWORD PTR ?AppData@@3PEAUD_App_Data@@EA
	add	rax, 272				; 00000110H
	xor	r8d, r8d
	mov	rdx, QWORD PTR FontData$[rsp]
	mov	rcx, rax
	call	stbtt_InitFont
; Line 96
	mov	rax, QWORD PTR ?AppData@@3PEAUD_App_Data@@EA
	add	rax, 488				; 000001e8H
	mov	DWORD PTR [rsp+32], 256			; 00000100H
	mov	rcx, QWORD PTR ?AppData@@3PEAUD_App_Data@@EA
	mov	r9, QWORD PTR [rcx+560]
	mov	rcx, QWORD PTR ?AppData@@3PEAUD_App_Data@@EA
	mov	r8d, DWORD PTR [rcx+444]
	mov	rcx, QWORD PTR ?AppData@@3PEAUD_App_Data@@EA
	mov	edx, DWORD PTR [rcx+440]
	mov	rcx, rax
	call	stbrp_init_target
	npad	1
; Line 103
	mov	rax, QWORD PTR __imp_glad_glGetError
	call	QWORD PTR [rax]
	mov	DWORD PTR ?GL_ERROR_VALUE@@3HA, eax
	cmp	DWORD PTR ?GL_ERROR_VALUE@@3HA, 0
	je	SHORT $LN16@main
	mov	DWORD PTR ds:0, 1
$LN16@main:
; Line 105
	call	glfwGetCurrentContext
	mov	rcx, rax
	call	glfwGetWin32Window
	mov	rcx, rax
	call	QWORD PTR __imp_GetDC
	mov	rcx, QWORD PTR ?AppData@@3PEAUD_App_Data@@EA
	mov	QWORD PTR [rcx+2768], rax
; Line 107
	mov	QWORD PTR InterfaceModule$[rsp], 0
; Line 108
	mov	DWORD PTR ModuleModTime$[rsp], 0
; Line 110
	mov	QWORD PTR GameLoad$[rsp], 0
; Line 112
	lea	rax, QWORD PTR DLLPath$[rsp]
	mov	rdi, rax
	xor	eax, eax
	mov	ecx, 1024				; 00000400H
	rep stosb
; Line 113
	lea	rax, OFFSET FLAT:$SG62171
	mov	QWORD PTR DLLName$[rsp], rax
; Line 115
	lea	rax, QWORD PTR CopyDLLPath$[rsp]
	mov	rdi, rax
	xor	eax, eax
	mov	ecx, 1024				; 00000400H
	rep stosb
; Line 116
	lea	rax, OFFSET FLAT:$SG62172
	mov	QWORD PTR CopyDLLName$[rsp], rax
; Line 117
	lea	rax, OFFSET FLAT:$SG62173
	mov	QWORD PTR LoadGameName$[rsp], rax
; Line 119
	lea	rdx, QWORD PTR DLLPath$[rsp]
	mov	rcx, QWORD PTR DLLName$[rsp]
	call	?CombineFilePath@@YAXPEBDPEAD@Z		; CombineFilePath
; Line 120
	lea	rdx, QWORD PTR CopyDLLPath$[rsp]
	mov	rcx, QWORD PTR CopyDLLName$[rsp]
	call	?CombineFilePath@@YAXPEBDPEAD@Z		; CombineFilePath
	npad	1
; Line 122
	lea	rcx, QWORD PTR DLLPath$[rsp]
	call	FileExists
	movzx	eax, al
	test	eax, eax
	je	SHORT $LN17@main
; Line 124
	lea	rcx, QWORD PTR DLLPath$[rsp]
	call	GetFileModTime
	mov	DWORD PTR ModuleModTime$[rsp], eax
; Line 125
	xor	r8d, r8d
	lea	rdx, QWORD PTR CopyDLLPath$[rsp]
	lea	rcx, QWORD PTR DLLPath$[rsp]
	call	QWORD PTR __imp_CopyFileA
	test	eax, eax
	jne	SHORT $LN18@main
; Line 126
	mov	DWORD PTR ds:0, 1
$LN18@main:
; Line 127
	lea	rcx, QWORD PTR CopyDLLPath$[rsp]
	call	QWORD PTR __imp_LoadLibraryA
	mov	QWORD PTR InterfaceModule$[rsp], rax
$LN17@main:
; Line 130
	cmp	QWORD PTR InterfaceModule$[rsp], 0
	je	SHORT $LN19@main
; Line 132
	mov	rdx, QWORD PTR LoadGameName$[rsp]
	mov	rcx, QWORD PTR InterfaceModule$[rsp]
	call	QWORD PTR __imp_GetProcAddress
	mov	QWORD PTR GameLoad$[rsp], rax
; Line 133
	mov	rcx, QWORD PTR ?AppData@@3PEAUD_App_Data@@EA
	call	QWORD PTR GameLoad$[rsp]
	npad	1
$LN19@main:
; Line 136
	mov	rax, QWORD PTR __imp_glad_glGetError
	call	QWORD PTR [rax]
	mov	DWORD PTR ?GL_ERROR_VALUE@@3HA, eax
	cmp	DWORD PTR ?GL_ERROR_VALUE@@3HA, 0
	je	SHORT $LN20@main
	mov	DWORD PTR ds:0, 1
$LN20@main:
$LN5@main:
; Line 137
	xor	eax, eax
	cmp	eax, 1
	je	$LN6@main
; Line 139
	mov	rax, QWORD PTR ?AppData@@3PEAUD_App_Data@@EA
	mov	eax, DWORD PTR [rax+72]
	inc	eax
	mov	rcx, QWORD PTR ?AppData@@3PEAUD_App_Data@@EA
	mov	DWORD PTR [rcx+72], eax
; Line 141
	lea	rcx, QWORD PTR DLLPath$[rsp]
	call	GetFileModTime
	cmp	DWORD PTR ModuleModTime$[rsp], eax
	je	$LN21@main
	lea	rcx, OFFSET FLAT:$SG62179
	call	FileExists
	movzx	eax, al
	test	eax, eax
	jne	$LN21@main
; Line 143
	lea	rcx, QWORD PTR DLLPath$[rsp]
	call	GetFileModTime
	mov	DWORD PTR ModuleModTime$[rsp], eax
; Line 145
	mov	rax, QWORD PTR ?AppData@@3PEAUD_App_Data@@EA
	cmp	QWORD PTR [rax+80], 0
	je	SHORT $LN22@main
; Line 146
	mov	rax, QWORD PTR ?AppData@@3PEAUD_App_Data@@EA
	call	QWORD PTR [rax+80]
	npad	1
$LN22@main:
; Line 148
	mov	rcx, QWORD PTR InterfaceModule$[rsp]
	call	QWORD PTR __imp_FreeLibrary
	test	eax, eax
	jne	SHORT $LN23@main
; Line 150
	mov	DWORD PTR ds:0, 1
$LN23@main:
$LN7@main:
; Line 154
	xor	eax, eax
	cmp	eax, 1
	je	SHORT $LN8@main
; Line 156
	xor	r8d, r8d
	lea	rdx, QWORD PTR CopyDLLPath$[rsp]
	lea	rcx, QWORD PTR DLLPath$[rsp]
	call	QWORD PTR __imp_CopyFileA
	test	eax, eax
	jne	SHORT $LN24@main
; Line 158
	call	QWORD PTR __imp_GetLastError
	mov	DWORD PTR CopyFailed$10[rsp], eax
; Line 159
	jmp	SHORT $LN7@main
$LN24@main:
; Line 162
	lea	rcx, QWORD PTR CopyDLLPath$[rsp]
	call	QWORD PTR __imp_LoadLibraryA
	mov	QWORD PTR InterfaceModule$[rsp], rax
; Line 164
	cmp	QWORD PTR InterfaceModule$[rsp], 0
	je	SHORT $LN25@main
; Line 166
	mov	rdx, QWORD PTR LoadGameName$[rsp]
	mov	rcx, QWORD PTR InterfaceModule$[rsp]
	call	QWORD PTR __imp_GetProcAddress
	mov	QWORD PTR GameLoad$[rsp], rax
; Line 167
	mov	rcx, QWORD PTR ?AppData@@3PEAUD_App_Data@@EA
	call	QWORD PTR GameLoad$[rsp]
	npad	1
$LN25@main:
; Line 170
	jmp	SHORT $LN8@main
; Line 171
	jmp	SHORT $LN7@main
$LN8@main:
$LN21@main:
; Line 174
	xor	ecx, ecx
	call	?GetWindow@@YAPEAUGLFWwindow@@H@Z	; GetWindow
	mov	rcx, rax
	call	glfwWindowShouldClose
	test	eax, eax
	je	SHORT $LN26@main
; Line 176
	xor	ecx, ecx
	call	?GetWindow@@YAPEAUGLFWwindow@@H@Z	; GetWindow
	mov	rcx, rax
	call	glfwDestroyWindow
	npad	1
; Line 177
	jmp	$LN6@main
$LN26@main:
; Line 188
	mov	rax, QWORD PTR ?AppData@@3PEAUD_App_Data@@EA
	movzx	eax, BYTE PTR [rax+1728]
	test	eax, eax
	je	SHORT $LN27@main
; Line 189
	jmp	$LN6@main
$LN27@main:
; Line 191
	mov	BYTE PTR NoWindowFocus$1[rsp], 1
; Line 193
	mov	DWORD PTR i$4[rsp], 0
	jmp	SHORT $LN11@main
$LN9@main:
	mov	eax, DWORD PTR i$4[rsp]
	inc	eax
	mov	DWORD PTR i$4[rsp], eax
$LN11@main:
	cmp	DWORD PTR i$4[rsp], 1
	jge	SHORT $LN10@main
; Line 195
	movsxd	rax, DWORD PTR i$4[rsp]
	lea	rcx, OFFSET FLAT:?WindowsFocused@@3PA_NA
	movzx	eax, BYTE PTR [rcx+rax]
	test	eax, eax
	je	SHORT $LN28@main
; Line 196
	mov	BYTE PTR NoWindowFocus$1[rsp], 0
$LN28@main:
; Line 197
	jmp	SHORT $LN9@main
$LN10@main:
; Line 199
	mov	rax, QWORD PTR ?AppData@@3PEAUD_App_Data@@EA
	xorps	xmm0, xmm0
	movss	DWORD PTR [rax+1732], xmm0
; Line 200
	mov	rax, QWORD PTR ?AppData@@3PEAUD_App_Data@@EA
	mov	DWORD PTR [rax+1308], 0
; Line 201
	mov	rax, QWORD PTR ?AppData@@3PEAUD_App_Data@@EA
	mov	DWORD PTR [rax+1304], 0
; Line 202
	mov	rax, QWORD PTR ?AppData@@3PEAUD_App_Data@@EA
	mov	DWORD PTR [rax+1300], 0
; Line 203
	mov	rax, QWORD PTR ?AppData@@3PEAUD_App_Data@@EA
	mov	DWORD PTR [rax+1632], 0
; Line 205
	mov	rax, QWORD PTR ?AppData@@3PEAUD_App_Data@@EA
	mov	DWORD PTR [rax+1232], 0
; Line 209
	call	glfwPollEvents
	npad	1
; Line 211
	mov	DWORD PTR WindowIndex$2[rsp], 0
	jmp	SHORT $LN14@main
$LN12@main:
	mov	eax, DWORD PTR WindowIndex$2[rsp]
	inc	eax
	mov	DWORD PTR WindowIndex$2[rsp], eax
$LN14@main:
	cmp	DWORD PTR WindowIndex$2[rsp], 1
	jge	$LN13@main
; Line 213
	mov	ecx, DWORD PTR WindowIndex$2[rsp]
	call	?GetWindow@@YAPEAUGLFWwindow@@H@Z	; GetWindow
	mov	rcx, QWORD PTR ?AppData@@3PEAUD_App_Data@@EA
	mov	QWORD PTR [rcx+1704], rax
; Line 214
	mov	eax, DWORD PTR WindowIndex$2[rsp]
	mov	DWORD PTR ?CurrentWindowIndex@@3HA, eax
; Line 215
	mov	rax, QWORD PTR ?AppData@@3PEAUD_App_Data@@EA
	mov	rcx, QWORD PTR [rax+1704]
	call	glfwMakeContextCurrent
	npad	1
; Line 217
	mov	rax, QWORD PTR ?AppData@@3PEAUD_App_Data@@EA
	cmp	QWORD PTR [rax+1704], 0
	jne	SHORT $LN29@main
; Line 218
	jmp	SHORT $LN12@main
$LN29@main:
; Line 220
	call	?CounterStamp@@YA_JXZ			; CounterStamp
	mov	rcx, QWORD PTR ?AppData@@3PEAUD_App_Data@@EA
	mov	QWORD PTR [rcx+96], rax
; Line 222
	mov	DWORD PTR WindowSizeWidth$6[rsp], 0
; Line 223
	mov	DWORD PTR WindowSizeHeight$5[rsp], 0
; Line 224
	lea	r8, QWORD PTR WindowSizeHeight$5[rsp]
	lea	rdx, QWORD PTR WindowSizeWidth$6[rsp]
	mov	rax, QWORD PTR ?AppData@@3PEAUD_App_Data@@EA
	mov	rcx, QWORD PTR [rax+1704]
	call	glfwGetWindowSize
	npad	1
; Line 226
	cmp	DWORD PTR WindowIndex$2[rsp], 0
	jne	SHORT $LN30@main
; Line 228
	cvtsi2ss xmm0, DWORD PTR WindowSizeWidth$6[rsp]
	mov	rax, QWORD PTR ?AppData@@3PEAUD_App_Data@@EA
	movss	xmm1, DWORD PTR [rax+1720]
	ucomiss	xmm1, xmm0
	jp	SHORT $LN32@main
	jne	SHORT $LN32@main
	cvtsi2ss xmm0, DWORD PTR WindowSizeHeight$5[rsp]
	mov	rax, QWORD PTR ?AppData@@3PEAUD_App_Data@@EA
	movss	xmm1, DWORD PTR [rax+1724]
	ucomiss	xmm1, xmm0
	jp	SHORT $LN38@main
	je	SHORT $LN31@main
$LN38@main:
$LN32@main:
; Line 230
	cvtsi2ss xmm0, DWORD PTR WindowSizeWidth$6[rsp]
	mov	rax, QWORD PTR ?AppData@@3PEAUD_App_Data@@EA
	movss	DWORD PTR [rax+1720], xmm0
; Line 231
	cvtsi2ss xmm0, DWORD PTR WindowSizeHeight$5[rsp]
	mov	rax, QWORD PTR ?AppData@@3PEAUD_App_Data@@EA
	movss	DWORD PTR [rax+1724], xmm0
; Line 232
	mov	r9d, DWORD PTR WindowSizeHeight$5[rsp]
	mov	r8d, DWORD PTR WindowSizeWidth$6[rsp]
	xor	edx, edx
	xor	ecx, ecx
	mov	rax, QWORD PTR __imp_glad_glViewport
	call	QWORD PTR [rax]
	npad	1
$LN31@main:
$LN30@main:
; Line 236
	call	glfwGetPrimaryMonitor
	mov	rcx, rax
	call	glfwGetVideoMode
	mov	QWORD PTR mode$11[rsp], rax
; Line 238
	mov	rax, QWORD PTR mode$11[rsp]
	cvtsi2ss xmm0, DWORD PTR [rax+4]
	mov	rax, QWORD PTR ?AppData@@3PEAUD_App_Data@@EA
	divss	xmm0, DWORD PTR [rax+1724]
	mov	rax, QWORD PTR ?AppData@@3PEAUD_App_Data@@EA
	movss	DWORD PTR [rax+1736], xmm0
; Line 239
	mov	rax, QWORD PTR __imp_glad_glGetError
	call	QWORD PTR [rax]
	mov	DWORD PTR ?GL_ERROR_VALUE@@3HA, eax
	cmp	DWORD PTR ?GL_ERROR_VALUE@@3HA, 0
	je	SHORT $LN33@main
	mov	DWORD PTR ds:0, 1
$LN33@main:
; Line 241
	cmp	DWORD PTR ?CurrentWindowIndex@@3HA, 0
	jne	SHORT $LN34@main
; Line 243
	mov	rax, QWORD PTR ?AppData@@3PEAUD_App_Data@@EA
	call	QWORD PTR [rax+88]
	npad	1
$LN34@main:
; Line 245
	jmp	$LN12@main
$LN13@main:
; Line 247
	mov	rax, QWORD PTR ?AppData@@3PEAUD_App_Data@@EA
	mov	rcx, QWORD PTR [rax+96]
	call	?EndTimeStamp@@YAN_J@Z			; EndTimeStamp
	divsd	xmm0, QWORD PTR __real@408f400000000000
	movsd	xmm1, QWORD PTR __real@4030aaaaaaaaaaab
	subsd	xmm1, xmm0
	movaps	xmm0, xmm1
	movsd	QWORD PTR SleepTime$9[rsp], xmm0
; Line 249
	movsd	xmm0, QWORD PTR SleepTime$9[rsp]
	comisd	xmm0, QWORD PTR __real@0000000000000000
	jbe	SHORT $LN35@main
; Line 251
	cvttsd2si rax, QWORD PTR SleepTime$9[rsp]
	mov	ecx, eax
	call	QWORD PTR __imp_Sleep
	npad	1
$LN35@main:
; Line 253
	jmp	$LN5@main
$LN6@main:
; Line 255
	mov	rax, QWORD PTR ?AppData@@3PEAUD_App_Data@@EA
	cmp	QWORD PTR [rax+80], 0
	je	SHORT $LN36@main
; Line 256
	mov	rax, QWORD PTR ?AppData@@3PEAUD_App_Data@@EA
	call	QWORD PTR [rax+80]
	npad	1
$LN36@main:
; Line 257
	xor	eax, eax
	mov	rcx, QWORD PTR __$ArrayPad$[rsp]
	xor	rcx, rsp
	call	__security_check_cookie
	add	rsp, 2552				; 000009f8H
	pop	rdi
	pop	rsi
	ret	0
main	ENDP
_TEXT	ENDS
; Function compile flags: /Odtp
_TEXT	SEGMENT
FileName$ = 48
ResultPath$ = 56
?CombineFilePath@@YAXPEBDPEAD@Z PROC			; CombineFilePath
; File D:\TIME\code\d_function.cpp
; Line 300
	mov	QWORD PTR [rsp+16], rdx
	mov	QWORD PTR [rsp+8], rcx
	sub	rsp, 40					; 00000028H
; Line 301
	mov	rax, QWORD PTR ?AppData@@3PEAUD_App_Data@@EA
	add	rax, 1740				; 000006ccH
	mov	rdx, rax
	mov	rcx, QWORD PTR ResultPath$[rsp]
	call	strcat
; Line 302
	mov	rdx, QWORD PTR FileName$[rsp]
	mov	rcx, QWORD PTR ResultPath$[rsp]
	call	strcat
	npad	1
; Line 303
	add	rsp, 40					; 00000028H
	ret	0
?CombineFilePath@@YAXPEBDPEAD@Z ENDP			; CombineFilePath
_TEXT	ENDS
; Function compile flags: /Odtp
_TEXT	SEGMENT
EndTime$ = 32
Frequency$ = 40
BeginTime$ = 64
?EndTimeStamp@@YAN_J@Z PROC				; EndTimeStamp
; File D:\TIME\code\d_function.cpp
; Line 35
	mov	QWORD PTR [rsp+8], rcx
	push	rdi
	sub	rsp, 48					; 00000030H
; Line 36
	lea	rax, QWORD PTR Frequency$[rsp]
	mov	rdi, rax
	xor	eax, eax
	mov	ecx, 8
	rep stosb
; Line 37
	lea	rax, QWORD PTR EndTime$[rsp]
	mov	rdi, rax
	xor	eax, eax
	mov	ecx, 8
	rep stosb
; Line 38
	lea	rcx, QWORD PTR Frequency$[rsp]
	call	QWORD PTR __imp_QueryPerformanceFrequency
; Line 39
	lea	rcx, QWORD PTR EndTime$[rsp]
	call	QWORD PTR __imp_QueryPerformanceCounter
; Line 41
	mov	rax, QWORD PTR BeginTime$[rsp]
	mov	rcx, QWORD PTR EndTime$[rsp]
	sub	rcx, rax
	mov	rax, rcx
	cvtsi2sd xmm0, rax
	mulsd	xmm0, QWORD PTR __real@412e848000000000
	cvtsi2sd xmm1, QWORD PTR Frequency$[rsp]
	divsd	xmm0, xmm1
; Line 42
	add	rsp, 48					; 00000030H
	pop	rdi
	ret	0
?EndTimeStamp@@YAN_J@Z ENDP				; EndTimeStamp
_TEXT	ENDS
; Function compile flags: /Odtp
_TEXT	SEGMENT
Time$ = 32
?CounterStamp@@YA_JXZ PROC				; CounterStamp
; File D:\TIME\code\d_function.cpp
; Line 9
	push	rdi
	sub	rsp, 48					; 00000030H
; Line 10
	lea	rax, QWORD PTR Time$[rsp]
	mov	rdi, rax
	xor	eax, eax
	mov	ecx, 8
	rep stosb
; Line 11
	lea	rcx, QWORD PTR Time$[rsp]
	call	QWORD PTR __imp_QueryPerformanceCounter
; Line 12
	mov	rax, QWORD PTR Time$[rsp]
; Line 13
	add	rsp, 48					; 00000030H
	pop	rdi
	ret	0
?CounterStamp@@YA_JXZ ENDP				; CounterStamp
_TEXT	ENDS
; Function compile flags: /Odtp
;	COMDAT ??__E_TypeStructMeta_@@YAXXZ
text$di	SEGMENT
??__E_TypeStructMeta_@@YAXXZ PROC			; `dynamic initializer for '_TypeStructMeta_'', COMDAT
; File D:\TIME\code\d_main_generated.cpp
; Line 169
	push	rdi
; Line 153
	mov	eax, DWORD PTR ?MemberMetaCount_D_Array@@3HA
	mov	DWORD PTR ?_TypeStructMeta_@@3PAU_StructMetaData@@A+264, eax
	lea	rax, OFFSET FLAT:?_TypeStructMeta_@@3PAU_StructMetaData@@A+272
	mov	rdi, rax
	xor	eax, eax
	mov	ecx, 16
	rep stosb
	lea	rax, OFFSET FLAT:?_TypeStructMeta_@@3PAU_StructMetaData@@A+288
	mov	rdi, rax
	xor	eax, eax
	mov	ecx, 16
	rep stosb
	lea	rax, OFFSET FLAT:?_TypeStructMeta_@@3PAU_StructMetaData@@A+304
	mov	rdi, rax
	xor	eax, eax
	mov	ecx, 16
	rep stosb
	lea	rax, OFFSET FLAT:?_TypeStructMeta_@@3PAU_StructMetaData@@A+320
	mov	rdi, rax
	xor	eax, eax
	mov	ecx, 16
	rep stosb
	lea	rax, OFFSET FLAT:?_TypeStructMeta_@@3PAU_StructMetaData@@A+336
	mov	rdi, rax
	xor	eax, eax
	mov	ecx, 16
	rep stosb
	lea	rax, OFFSET FLAT:?_TypeStructMeta_@@3PAU_StructMetaData@@A+352
	mov	rdi, rax
	xor	eax, eax
	mov	ecx, 16
	rep stosb
	lea	rax, OFFSET FLAT:?_TypeStructMeta_@@3PAU_StructMetaData@@A+368
	mov	rdi, rax
	xor	eax, eax
	mov	ecx, 16
	rep stosb
	lea	rax, OFFSET FLAT:?_TypeStructMeta_@@3PAU_StructMetaData@@A+384
	mov	rdi, rax
	xor	eax, eax
	mov	ecx, 16
	rep stosb
	lea	rax, OFFSET FLAT:?_TypeStructMeta_@@3PAU_StructMetaData@@A+400
	mov	rdi, rax
	xor	eax, eax
	mov	ecx, 16
	rep stosb
	lea	rax, OFFSET FLAT:?_TypeStructMeta_@@3PAU_StructMetaData@@A+416
	mov	rdi, rax
	xor	eax, eax
	mov	ecx, 16
	rep stosb
	lea	rax, OFFSET FLAT:?_TypeStructMeta_@@3PAU_StructMetaData@@A+432
	mov	rdi, rax
	xor	eax, eax
	mov	ecx, 16
	rep stosb
	lea	rax, OFFSET FLAT:?_TypeStructMeta_@@3PAU_StructMetaData@@A+448
	mov	rdi, rax
	xor	eax, eax
	mov	ecx, 16
	rep stosb
	lea	rax, OFFSET FLAT:?_TypeStructMeta_@@3PAU_StructMetaData@@A+464
	mov	rdi, rax
	xor	eax, eax
	mov	ecx, 16
	rep stosb
	lea	rax, OFFSET FLAT:?_TypeStructMeta_@@3PAU_StructMetaData@@A+480
	mov	rdi, rax
	xor	eax, eax
	mov	ecx, 16
	rep stosb
	lea	rax, OFFSET FLAT:?_TypeStructMeta_@@3PAU_StructMetaData@@A+496
	mov	rdi, rax
	xor	eax, eax
	mov	ecx, 16
	rep stosb
	pop	rdi
	ret	0
??__E_TypeStructMeta_@@YAXXZ ENDP			; `dynamic initializer for '_TypeStructMeta_''
text$di	ENDS
; Function compile flags: /Odtp
;	COMDAT ??__EMemberMeta_D_Array@@YAXXZ
text$di	SEGMENT
??__EMemberMeta_D_Array@@YAXXZ PROC			; `dynamic initializer for 'MemberMeta_D_Array'', COMDAT
; File D:\TIME\code\d_main_generated.cpp
; Line 133
	push	rsi
	push	rdi
; Line 127
	mov	eax, 1
	imul	rax, rax, 13
	lea	rcx, OFFSET FLAT:?IsTypeIntrospected@@3PA_NA ; IsTypeIntrospected
	movzx	eax, BYTE PTR [rcx+rax]
	mov	BYTE PTR ?MemberMeta_D_Array@@3PAU_MemberMetaData@@A+148, al
	lea	rax, OFFSET FLAT:?MemberMeta_D_Array@@3PAU_MemberMetaData@@A+152
	lea	rcx, OFFSET FLAT:$SG61660
	mov	rdi, rax
	mov	rsi, rcx
	mov	ecx, 13
	rep movsb
	lea	rax, OFFSET FLAT:?MemberMeta_D_Array@@3PAU_MemberMetaData@@A+165
	mov	rdi, rax
	xor	eax, eax
	mov	ecx, 51					; 00000033H
	rep stosb
; Line 128
	mov	DWORD PTR ?MemberMeta_D_Array@@3PAU_MemberMetaData@@A+216, 1
	mov	BYTE PTR ?MemberMeta_D_Array@@3PAU_MemberMetaData@@A+220, 0
	mov	BYTE PTR ?MemberMeta_D_Array@@3PAU_MemberMetaData@@A+221, 1
	mov	BYTE PTR ?MemberMeta_D_Array@@3PAU_MemberMetaData@@A+222, 0
	mov	DWORD PTR ?MemberMeta_D_Array@@3PAU_MemberMetaData@@A+224, 2
	lea	rax, OFFSET FLAT:?MemberMeta_D_Array@@3PAU_MemberMetaData@@A+228
	lea	rcx, OFFSET FLAT:$SG61661
	mov	rdi, rax
	mov	rsi, rcx
	mov	ecx, 5
	rep movsb
	lea	rax, OFFSET FLAT:?MemberMeta_D_Array@@3PAU_MemberMetaData@@A+233
	mov	rdi, rax
	xor	eax, eax
	mov	ecx, 59					; 0000003bH
	rep stosb
	mov	DWORD PTR ?MemberMeta_D_Array@@3PAU_MemberMetaData@@A+292, 8
	mov	DWORD PTR ?MemberMeta_D_Array@@3PAU_MemberMetaData@@A+296, 1
	mov	eax, 1
	imul	rax, rax, 2
	lea	rcx, OFFSET FLAT:?IsTypeIntrospected@@3PA_NA ; IsTypeIntrospected
	movzx	eax, BYTE PTR [rcx+rax]
	mov	BYTE PTR ?MemberMeta_D_Array@@3PAU_MemberMetaData@@A+300, al
	lea	rax, OFFSET FLAT:?MemberMeta_D_Array@@3PAU_MemberMetaData@@A+304
	lea	rcx, OFFSET FLAT:$SG61662
	mov	rdi, rax
	mov	rsi, rcx
	mov	ecx, 9
	rep movsb
	lea	rax, OFFSET FLAT:?MemberMeta_D_Array@@3PAU_MemberMetaData@@A+313
	mov	rdi, rax
	xor	eax, eax
	mov	ecx, 55					; 00000037H
	rep stosb
; Line 129
	mov	DWORD PTR ?MemberMeta_D_Array@@3PAU_MemberMetaData@@A+368, 2
	mov	BYTE PTR ?MemberMeta_D_Array@@3PAU_MemberMetaData@@A+372, 0
	mov	BYTE PTR ?MemberMeta_D_Array@@3PAU_MemberMetaData@@A+373, 0
	mov	BYTE PTR ?MemberMeta_D_Array@@3PAU_MemberMetaData@@A+374, 0
	mov	DWORD PTR ?MemberMeta_D_Array@@3PAU_MemberMetaData@@A+376, 3
	mov	eax, DWORD PTR $SG61663
	mov	DWORD PTR ?MemberMeta_D_Array@@3PAU_MemberMetaData@@A+380, eax
	lea	rax, OFFSET FLAT:?MemberMeta_D_Array@@3PAU_MemberMetaData@@A+384
	mov	rdi, rax
	xor	eax, eax
	mov	ecx, 60					; 0000003cH
	rep stosb
	mov	DWORD PTR ?MemberMeta_D_Array@@3PAU_MemberMetaData@@A+444, 16
	mov	DWORD PTR ?MemberMeta_D_Array@@3PAU_MemberMetaData@@A+448, 4
	mov	eax, 1
	imul	rax, rax, 3
	lea	rcx, OFFSET FLAT:?IsTypeIntrospected@@3PA_NA ; IsTypeIntrospected
	movzx	eax, BYTE PTR [rcx+rax]
	mov	BYTE PTR ?MemberMeta_D_Array@@3PAU_MemberMetaData@@A+452, al
	lea	rax, OFFSET FLAT:?MemberMeta_D_Array@@3PAU_MemberMetaData@@A+456
	lea	rcx, OFFSET FLAT:$SG61664
	mov	rdi, rax
	mov	rsi, rcx
	mov	ecx, 13
	rep movsb
	lea	rax, OFFSET FLAT:?MemberMeta_D_Array@@3PAU_MemberMetaData@@A+469
	mov	rdi, rax
	xor	eax, eax
	mov	ecx, 51					; 00000033H
	rep stosb
; Line 130
	mov	DWORD PTR ?MemberMeta_D_Array@@3PAU_MemberMetaData@@A+520, 3
	mov	BYTE PTR ?MemberMeta_D_Array@@3PAU_MemberMetaData@@A+524, 0
	mov	BYTE PTR ?MemberMeta_D_Array@@3PAU_MemberMetaData@@A+525, 0
	mov	BYTE PTR ?MemberMeta_D_Array@@3PAU_MemberMetaData@@A+526, 0
	mov	DWORD PTR ?MemberMeta_D_Array@@3PAU_MemberMetaData@@A+528, 3
	mov	eax, DWORD PTR $SG61665
	mov	DWORD PTR ?MemberMeta_D_Array@@3PAU_MemberMetaData@@A+532, eax
	lea	rax, OFFSET FLAT:?MemberMeta_D_Array@@3PAU_MemberMetaData@@A+536
	mov	rdi, rax
	xor	eax, eax
	mov	ecx, 60					; 0000003cH
	rep stosb
	mov	DWORD PTR ?MemberMeta_D_Array@@3PAU_MemberMetaData@@A+596, 20
	mov	DWORD PTR ?MemberMeta_D_Array@@3PAU_MemberMetaData@@A+600, 4
	mov	eax, 1
	imul	rax, rax, 3
	lea	rcx, OFFSET FLAT:?IsTypeIntrospected@@3PA_NA ; IsTypeIntrospected
	movzx	eax, BYTE PTR [rcx+rax]
	mov	BYTE PTR ?MemberMeta_D_Array@@3PAU_MemberMetaData@@A+604, al
	lea	rax, OFFSET FLAT:?MemberMeta_D_Array@@3PAU_MemberMetaData@@A+608
	lea	rcx, OFFSET FLAT:$SG61666
	mov	rdi, rax
	mov	rsi, rcx
	mov	ecx, 11
	rep movsb
	lea	rax, OFFSET FLAT:?MemberMeta_D_Array@@3PAU_MemberMetaData@@A+619
	mov	rdi, rax
	xor	eax, eax
	mov	ecx, 53					; 00000035H
	rep stosb
; Line 131
	mov	DWORD PTR ?MemberMeta_D_Array@@3PAU_MemberMetaData@@A+672, 4
	mov	BYTE PTR ?MemberMeta_D_Array@@3PAU_MemberMetaData@@A+676, 0
	mov	BYTE PTR ?MemberMeta_D_Array@@3PAU_MemberMetaData@@A+677, 0
	mov	BYTE PTR ?MemberMeta_D_Array@@3PAU_MemberMetaData@@A+678, 0
	mov	DWORD PTR ?MemberMeta_D_Array@@3PAU_MemberMetaData@@A+680, 3
	mov	eax, DWORD PTR $SG61667
	mov	DWORD PTR ?MemberMeta_D_Array@@3PAU_MemberMetaData@@A+684, eax
	lea	rax, OFFSET FLAT:?MemberMeta_D_Array@@3PAU_MemberMetaData@@A+688
	mov	rdi, rax
	xor	eax, eax
	mov	ecx, 60					; 0000003cH
	rep stosb
	mov	DWORD PTR ?MemberMeta_D_Array@@3PAU_MemberMetaData@@A+748, 24
	mov	DWORD PTR ?MemberMeta_D_Array@@3PAU_MemberMetaData@@A+752, 4
	mov	eax, 1
	imul	rax, rax, 3
	lea	rcx, OFFSET FLAT:?IsTypeIntrospected@@3PA_NA ; IsTypeIntrospected
	movzx	eax, BYTE PTR [rcx+rax]
	mov	BYTE PTR ?MemberMeta_D_Array@@3PAU_MemberMetaData@@A+756, al
	lea	rax, OFFSET FLAT:?MemberMeta_D_Array@@3PAU_MemberMetaData@@A+760
	lea	rcx, OFFSET FLAT:$SG61668
	mov	rdi, rax
	mov	rsi, rcx
	mov	ecx, 16
	rep movsb
	lea	rax, OFFSET FLAT:?MemberMeta_D_Array@@3PAU_MemberMetaData@@A+776
	mov	rdi, rax
	xor	eax, eax
	mov	ecx, 48					; 00000030H
	rep stosb
; Line 132
	mov	DWORD PTR ?MemberMeta_D_Array@@3PAU_MemberMetaData@@A+824, 5
	mov	BYTE PTR ?MemberMeta_D_Array@@3PAU_MemberMetaData@@A+828, 0
	mov	BYTE PTR ?MemberMeta_D_Array@@3PAU_MemberMetaData@@A+829, 0
	mov	BYTE PTR ?MemberMeta_D_Array@@3PAU_MemberMetaData@@A+830, 0
	mov	DWORD PTR ?MemberMeta_D_Array@@3PAU_MemberMetaData@@A+832, 3
	mov	eax, DWORD PTR $SG61669
	mov	DWORD PTR ?MemberMeta_D_Array@@3PAU_MemberMetaData@@A+836, eax
	lea	rax, OFFSET FLAT:?MemberMeta_D_Array@@3PAU_MemberMetaData@@A+840
	mov	rdi, rax
	xor	eax, eax
	mov	ecx, 60					; 0000003cH
	rep stosb
	mov	DWORD PTR ?MemberMeta_D_Array@@3PAU_MemberMetaData@@A+900, 28
	mov	DWORD PTR ?MemberMeta_D_Array@@3PAU_MemberMetaData@@A+904, 4
	mov	eax, 1
	imul	rax, rax, 3
	lea	rcx, OFFSET FLAT:?IsTypeIntrospected@@3PA_NA ; IsTypeIntrospected
	movzx	eax, BYTE PTR [rcx+rax]
	mov	BYTE PTR ?MemberMeta_D_Array@@3PAU_MemberMetaData@@A+908, al
	pop	rdi
	pop	rsi
	ret	0
??__EMemberMeta_D_Array@@YAXXZ ENDP			; `dynamic initializer for 'MemberMeta_D_Array''
text$di	ENDS
; Function compile flags: /Odtp
_TEXT	SEGMENT
Window$ = 8
?RefreshCallback@@YAXPEAUGLFWwindow@@@Z PROC		; RefreshCallback
; File D:\TIME\code\d_main.h
; Line 405
	mov	QWORD PTR [rsp+8], rcx
; Line 424
	ret	0
?RefreshCallback@@YAXPEAUGLFWwindow@@@Z ENDP		; RefreshCallback
_TEXT	ENDS
; Function compile flags: /Odtp
_TEXT	SEGMENT
tv75 = 32
i$1 = 36
window$ = 64
focused$ = 72
?FocusCallback@@YAXPEAUGLFWwindow@@H@Z PROC		; FocusCallback
; File D:\TIME\code\d_main.h
; Line 388
	mov	DWORD PTR [rsp+16], edx
	mov	QWORD PTR [rsp+8], rcx
	sub	rsp, 56					; 00000038H
; Line 389
	cmp	DWORD PTR focused$[rsp], 1
	jne	SHORT $LN5@FocusCallb
; Line 391
	mov	rax, QWORD PTR ?AppData@@3PEAUD_App_Data@@EA
	mov	rcx, QWORD PTR window$[rsp]
	mov	QWORD PTR [rax+1712], rcx
$LN5@FocusCallb:
; Line 394
	mov	DWORD PTR i$1[rsp], 0
	jmp	SHORT $LN4@FocusCallb
$LN2@FocusCallb:
	mov	eax, DWORD PTR i$1[rsp]
	inc	eax
	mov	DWORD PTR i$1[rsp], eax
$LN4@FocusCallb:
	cmp	DWORD PTR i$1[rsp], 1
	jge	SHORT $LN3@FocusCallb
; Line 396
	mov	ecx, DWORD PTR i$1[rsp]
	call	?GetWindow@@YAPEAUGLFWwindow@@H@Z	; GetWindow
	cmp	rax, QWORD PTR window$[rsp]
	jne	SHORT $LN6@FocusCallb
; Line 398
	cmp	DWORD PTR focused$[rsp], 0
	je	SHORT $LN8@FocusCallb
	mov	BYTE PTR tv75[rsp], 1
	jmp	SHORT $LN9@FocusCallb
$LN8@FocusCallb:
	mov	BYTE PTR tv75[rsp], 0
$LN9@FocusCallb:
	movsxd	rax, DWORD PTR i$1[rsp]
	lea	rcx, OFFSET FLAT:?WindowsFocused@@3PA_NA
	movzx	edx, BYTE PTR tv75[rsp]
	mov	BYTE PTR [rcx+rax], dl
; Line 399
	jmp	SHORT $LN3@FocusCallb
$LN6@FocusCallb:
; Line 401
	jmp	SHORT $LN2@FocusCallb
$LN3@FocusCallb:
; Line 402
	add	rsp, 56					; 00000038H
	ret	0
?FocusCallback@@YAXPEAUGLFWwindow@@H@Z ENDP		; FocusCallback
_TEXT	ENDS
; Function compile flags: /Odtp
_TEXT	SEGMENT
window$ = 8
xoffset$ = 16
yoffset$ = 24
?MouseScrollCallback@@YAXPEAUGLFWwindow@@NN@Z PROC	; MouseScrollCallback
; File D:\TIME\code\d_main.h
; Line 383
	movsd	QWORD PTR [rsp+24], xmm2
	movsd	QWORD PTR [rsp+16], xmm1
	mov	QWORD PTR [rsp+8], rcx
; Line 384
	mov	rax, QWORD PTR ?AppData@@3PEAUD_App_Data@@EA
	cvtss2sd xmm0, DWORD PTR [rax+1732]
	addsd	xmm0, QWORD PTR yoffset$[rsp]
	cvtsd2ss xmm0, xmm0
	mov	rax, QWORD PTR ?AppData@@3PEAUD_App_Data@@EA
	movss	DWORD PTR [rax+1732], xmm0
; Line 385
	ret	0
?MouseScrollCallback@@YAXPEAUGLFWwindow@@NN@Z ENDP	; MouseScrollCallback
_TEXT	ENDS
; Function compile flags: /Odtp
_TEXT	SEGMENT
window$ = 8
button$ = 16
action$ = 24
mods$ = 32
?MouseCallback@@YAXPEAUGLFWwindow@@HHH@Z PROC		; MouseCallback
; File D:\TIME\code\d_main.h
; Line 334
	mov	DWORD PTR [rsp+32], r9d
	mov	DWORD PTR [rsp+24], r8d
	mov	DWORD PTR [rsp+16], edx
	mov	QWORD PTR [rsp+8], rcx
; Line 335
	cmp	DWORD PTR action$[rsp], 0
	jne	SHORT $LN2@MouseCallb
; Line 337
	mov	rax, QWORD PTR ?AppData@@3PEAUD_App_Data@@EA
	movsxd	rax, DWORD PTR [rax+1232]
	mov	rcx, QWORD PTR ?AppData@@3PEAUD_App_Data@@EA
	mov	edx, DWORD PTR button$[rsp]
	mov	DWORD PTR [rcx+rax*4+1168], edx
	mov	rax, QWORD PTR ?AppData@@3PEAUD_App_Data@@EA
	mov	eax, DWORD PTR [rax+1232]
	inc	eax
	mov	rcx, QWORD PTR ?AppData@@3PEAUD_App_Data@@EA
	mov	DWORD PTR [rcx+1232], eax
; Line 338
	movsxd	rax, DWORD PTR button$[rsp]
	mov	rcx, QWORD PTR ?AppData@@3PEAUD_App_Data@@EA
	mov	BYTE PTR [rcx+rax+656], 0
$LN2@MouseCallb:
; Line 341
	cmp	DWORD PTR action$[rsp], 1
	jne	SHORT $LN3@MouseCallb
; Line 343
	mov	rax, QWORD PTR ?AppData@@3PEAUD_App_Data@@EA
	movsxd	rax, DWORD PTR [rax+1300]
	mov	rcx, QWORD PTR ?AppData@@3PEAUD_App_Data@@EA
	mov	edx, DWORD PTR button$[rsp]
	mov	DWORD PTR [rcx+rax*4+1236], edx
	mov	rax, QWORD PTR ?AppData@@3PEAUD_App_Data@@EA
	mov	eax, DWORD PTR [rax+1300]
	inc	eax
	mov	rcx, QWORD PTR ?AppData@@3PEAUD_App_Data@@EA
	mov	DWORD PTR [rcx+1300], eax
; Line 344
	movsxd	rax, DWORD PTR button$[rsp]
	mov	rcx, QWORD PTR ?AppData@@3PEAUD_App_Data@@EA
	mov	BYTE PTR [rcx+rax+656], 1
$LN3@MouseCallb:
; Line 346
	ret	0
?MouseCallback@@YAXPEAUGLFWwindow@@HHH@Z ENDP		; MouseCallback
_TEXT	ENDS
; Function compile flags: /Odtp
_TEXT	SEGMENT
window$ = 8
codepoint$ = 16
?CharCallback@@YAXPEAUGLFWwindow@@I@Z PROC		; CharCallback
; File D:\TIME\code\d_main.h
; Line 318
	mov	DWORD PTR [rsp+16], edx
	mov	QWORD PTR [rsp+8], rcx
; Line 319
	mov	rax, QWORD PTR ?AppData@@3PEAUD_App_Data@@EA
	movsxd	rax, DWORD PTR [rax+1308]
	mov	rcx, QWORD PTR ?AppData@@3PEAUD_App_Data@@EA
	mov	edx, DWORD PTR codepoint$[rsp]
	mov	DWORD PTR [rcx+rax*4+1312], edx
; Line 320
	mov	rax, QWORD PTR ?AppData@@3PEAUD_App_Data@@EA
	mov	eax, DWORD PTR [rax+1308]
	inc	eax
	mov	rcx, QWORD PTR ?AppData@@3PEAUD_App_Data@@EA
	mov	DWORD PTR [rcx+1308], eax
; Line 321
	ret	0
?CharCallback@@YAXPEAUGLFWwindow@@I@Z ENDP		; CharCallback
_TEXT	ENDS
; Function compile flags: /Odtp
_TEXT	SEGMENT
window$ = 8
Key$ = 16
scancode$ = 24
action$ = 32
mods$ = 40
?KeyCallback@@YAXPEAUGLFWwindow@@HHHH@Z PROC		; KeyCallback
; File D:\TIME\code\d_main.h
; Line 269
	mov	DWORD PTR [rsp+32], r9d
	mov	DWORD PTR [rsp+24], r8d
	mov	DWORD PTR [rsp+16], edx
	mov	QWORD PTR [rsp+8], rcx
; Line 270
	cmp	DWORD PTR action$[rsp], 0
	jne	SHORT $LN2@KeyCallbac
; Line 272
	movsxd	rax, DWORD PTR Key$[rsp]
	mov	rcx, QWORD PTR ?AppData@@3PEAUD_App_Data@@EA
	mov	BYTE PTR [rcx+rax+592], 0
; Line 273
	mov	rax, QWORD PTR ?AppData@@3PEAUD_App_Data@@EA
	movsxd	rax, DWORD PTR [rax+1700]
	mov	rcx, QWORD PTR ?AppData@@3PEAUD_App_Data@@EA
	mov	edx, DWORD PTR Key$[rsp]
	mov	DWORD PTR [rcx+rax*4+1636], edx
	mov	rax, QWORD PTR ?AppData@@3PEAUD_App_Data@@EA
	mov	eax, DWORD PTR [rax+1700]
	inc	eax
	mov	rcx, QWORD PTR ?AppData@@3PEAUD_App_Data@@EA
	mov	DWORD PTR [rcx+1700], eax
$LN2@KeyCallbac:
; Line 276
	cmp	DWORD PTR action$[rsp], 1
	jne	SHORT $LN3@KeyCallbac
; Line 278
	movsxd	rax, DWORD PTR Key$[rsp]
	mov	rcx, QWORD PTR ?AppData@@3PEAUD_App_Data@@EA
	mov	BYTE PTR [rcx+rax+592], 1
; Line 279
	mov	rax, QWORD PTR ?AppData@@3PEAUD_App_Data@@EA
	movsxd	rax, DWORD PTR [rax+1632]
	mov	rcx, QWORD PTR ?AppData@@3PEAUD_App_Data@@EA
	mov	edx, DWORD PTR Key$[rsp]
	mov	DWORD PTR [rcx+rax*4+1568], edx
	mov	rax, QWORD PTR ?AppData@@3PEAUD_App_Data@@EA
	mov	eax, DWORD PTR [rax+1632]
	inc	eax
	mov	rcx, QWORD PTR ?AppData@@3PEAUD_App_Data@@EA
	mov	DWORD PTR [rcx+1632], eax
$LN3@KeyCallbac:
; Line 281
	ret	0
?KeyCallback@@YAXPEAUGLFWwindow@@HHHH@Z ENDP		; KeyCallback
_TEXT	ENDS
; Function compile flags: /Odtp
_TEXT	SEGMENT
NewWindow$ = 8
TargetWindow$ = 16
?SetWindow@@YAXPEAUGLFWwindow@@H@Z PROC			; SetWindow
; File D:\TIME\code\d_main.h
; Line 88
	mov	DWORD PTR [rsp+16], edx
	mov	QWORD PTR [rsp+8], rcx
; Line 89
	movsxd	rax, DWORD PTR TargetWindow$[rsp]
	lea	rcx, OFFSET FLAT:?AllWindows@@3PAPEAUGLFWwindow@@A
	mov	rdx, QWORD PTR NewWindow$[rsp]
	mov	QWORD PTR [rcx+rax*8], rdx
; Line 90
	ret	0
?SetWindow@@YAXPEAUGLFWwindow@@H@Z ENDP			; SetWindow
_TEXT	ENDS
; Function compile flags: /Odtp
_TEXT	SEGMENT
TargetWindow$ = 8
?GetWindow@@YAPEAUGLFWwindow@@H@Z PROC			; GetWindow
; File D:\TIME\code\d_main.h
; Line 83
	mov	DWORD PTR [rsp+8], ecx
; Line 84
	movsxd	rax, DWORD PTR TargetWindow$[rsp]
	lea	rcx, OFFSET FLAT:?AllWindows@@3PAPEAUGLFWwindow@@A
	mov	rax, QWORD PTR [rcx+rax*8]
; Line 85
	ret	0
?GetWindow@@YAPEAUGLFWwindow@@H@Z ENDP			; GetWindow
_TEXT	ENDS
; Function compile flags: /Odtp
_TEXT	SEGMENT
cmap$ = 32
fdselectoff$1 = 36
i$ = 40
encoding_record$2 = 44
fdarrayoff$3 = 48
charstrings$4 = 52
b$5 = 56
cff$6 = 72
cstype$7 = 76
t$ = 80
tv321 = 84
tv328 = 88
numTables$ = 92
topdict$8 = 96
$T9 = 112
$T10 = 128
$T11 = 144
$T12 = 160
$T13 = 176
topdictidx$14 = 192
$T15 = 208
$T16 = 224
$T17 = 240
$T18 = 256
$T19 = 272
$T20 = 288
$T21 = 304
$T22 = 320
$T23 = 336
$T24 = 352
$T25 = 368
$T26 = 384
$T27 = 400
$T28 = 416
$T29 = 432
$T30 = 448
$T31 = 464
$T32 = 480
$T33 = 496
$T34 = 512
$T35 = 528
$T36 = 544
$T37 = 560
$T38 = 576
info$ = 624
data$ = 632
fontstart$ = 640
?stbtt_InitFont_internal@@YAHPEAUstbtt_fontinfo@@PEAEH@Z PROC ; stbtt_InitFont_internal
; File D:\TIME\code\stb_truetype.h
; Line 1384
	mov	DWORD PTR [rsp+24], r8d
	mov	QWORD PTR [rsp+16], rdx
	mov	QWORD PTR [rsp+8], rcx
	push	rsi
	push	rdi
	sub	rsp, 600				; 00000258H
; Line 1388
	mov	rax, QWORD PTR info$[rsp]
	mov	rcx, QWORD PTR data$[rsp]
	mov	QWORD PTR [rax+8], rcx
; Line 1389
	mov	rax, QWORD PTR info$[rsp]
	mov	ecx, DWORD PTR fontstart$[rsp]
	mov	DWORD PTR [rax+16], ecx
; Line 1390
	xor	r8d, r8d
	xor	edx, edx
	lea	rcx, QWORD PTR $T24[rsp]
	call	?stbtt__new_buf@@YA?AUstbtt__buf@@PEBX_K@Z ; stbtt__new_buf
	lea	rcx, QWORD PTR $T9[rsp]
	mov	rdi, rcx
	mov	rsi, rax
	mov	ecx, 16
	rep movsb
	mov	rax, QWORD PTR info$[rsp]
	lea	rcx, QWORD PTR $T9[rsp]
	lea	rdi, QWORD PTR [rax+64]
	mov	rsi, rcx
	mov	ecx, 16
	rep movsb
; Line 1392
	lea	r8, OFFSET FLAT:$SG54283
	mov	edx, DWORD PTR fontstart$[rsp]
	mov	rcx, QWORD PTR data$[rsp]
	call	?stbtt__find_table@@YAIPEAEIPEBD@Z	; stbtt__find_table
	mov	DWORD PTR cmap$[rsp], eax
; Line 1393
	lea	r8, OFFSET FLAT:$SG54284
	mov	edx, DWORD PTR fontstart$[rsp]
	mov	rcx, QWORD PTR data$[rsp]
	call	?stbtt__find_table@@YAIPEAEIPEBD@Z	; stbtt__find_table
	mov	rcx, QWORD PTR info$[rsp]
	mov	DWORD PTR [rcx+24], eax
; Line 1394
	lea	r8, OFFSET FLAT:$SG54285
	mov	edx, DWORD PTR fontstart$[rsp]
	mov	rcx, QWORD PTR data$[rsp]
	call	?stbtt__find_table@@YAIPEAEIPEBD@Z	; stbtt__find_table
	mov	rcx, QWORD PTR info$[rsp]
	mov	DWORD PTR [rcx+28], eax
; Line 1395
	lea	r8, OFFSET FLAT:$SG54286
	mov	edx, DWORD PTR fontstart$[rsp]
	mov	rcx, QWORD PTR data$[rsp]
	call	?stbtt__find_table@@YAIPEAEIPEBD@Z	; stbtt__find_table
	mov	rcx, QWORD PTR info$[rsp]
	mov	DWORD PTR [rcx+32], eax
; Line 1396
	lea	r8, OFFSET FLAT:$SG54287
	mov	edx, DWORD PTR fontstart$[rsp]
	mov	rcx, QWORD PTR data$[rsp]
	call	?stbtt__find_table@@YAIPEAEIPEBD@Z	; stbtt__find_table
	mov	rcx, QWORD PTR info$[rsp]
	mov	DWORD PTR [rcx+36], eax
; Line 1397
	lea	r8, OFFSET FLAT:$SG54288
	mov	edx, DWORD PTR fontstart$[rsp]
	mov	rcx, QWORD PTR data$[rsp]
	call	?stbtt__find_table@@YAIPEAEIPEBD@Z	; stbtt__find_table
	mov	rcx, QWORD PTR info$[rsp]
	mov	DWORD PTR [rcx+40], eax
; Line 1398
	lea	r8, OFFSET FLAT:$SG54289
	mov	edx, DWORD PTR fontstart$[rsp]
	mov	rcx, QWORD PTR data$[rsp]
	call	?stbtt__find_table@@YAIPEAEIPEBD@Z	; stbtt__find_table
	mov	rcx, QWORD PTR info$[rsp]
	mov	DWORD PTR [rcx+44], eax
; Line 1399
	lea	r8, OFFSET FLAT:$SG54290
	mov	edx, DWORD PTR fontstart$[rsp]
	mov	rcx, QWORD PTR data$[rsp]
	call	?stbtt__find_table@@YAIPEAEIPEBD@Z	; stbtt__find_table
	mov	rcx, QWORD PTR info$[rsp]
	mov	DWORD PTR [rcx+48], eax
; Line 1401
	cmp	DWORD PTR cmap$[rsp], 0
	je	SHORT $LN10@stbtt_Init
	mov	rax, QWORD PTR info$[rsp]
	cmp	DWORD PTR [rax+28], 0
	je	SHORT $LN10@stbtt_Init
	mov	rax, QWORD PTR info$[rsp]
	cmp	DWORD PTR [rax+36], 0
	je	SHORT $LN10@stbtt_Init
	mov	rax, QWORD PTR info$[rsp]
	cmp	DWORD PTR [rax+40], 0
	jne	SHORT $LN9@stbtt_Init
$LN10@stbtt_Init:
; Line 1402
	xor	eax, eax
	jmp	$LN1@stbtt_Init
$LN9@stbtt_Init:
; Line 1403
	mov	rax, QWORD PTR info$[rsp]
	cmp	DWORD PTR [rax+32], 0
	je	SHORT $LN11@stbtt_Init
; Line 1405
	mov	rax, QWORD PTR info$[rsp]
	cmp	DWORD PTR [rax+24], 0
	jne	SHORT $LN13@stbtt_Init
	xor	eax, eax
	jmp	$LN1@stbtt_Init
$LN13@stbtt_Init:
; Line 1406
	jmp	$LN12@stbtt_Init
$LN11@stbtt_Init:
; Line 1409
	mov	DWORD PTR cstype$7[rsp], 2
	mov	DWORD PTR charstrings$4[rsp], 0
	mov	DWORD PTR fdarrayoff$3[rsp], 0
	mov	DWORD PTR fdselectoff$1[rsp], 0
; Line 1412
	lea	r8, OFFSET FLAT:$SG54296
	mov	edx, DWORD PTR fontstart$[rsp]
	mov	rcx, QWORD PTR data$[rsp]
	call	?stbtt__find_table@@YAIPEAEIPEBD@Z	; stbtt__find_table
	mov	DWORD PTR cff$6[rsp], eax
; Line 1413
	cmp	DWORD PTR cff$6[rsp], 0
	jne	SHORT $LN14@stbtt_Init
	xor	eax, eax
	jmp	$LN1@stbtt_Init
$LN14@stbtt_Init:
; Line 1415
	xor	r8d, r8d
	xor	edx, edx
	lea	rcx, QWORD PTR $T25[rsp]
	call	?stbtt__new_buf@@YA?AUstbtt__buf@@PEBX_K@Z ; stbtt__new_buf
	lea	rcx, QWORD PTR $T10[rsp]
	mov	rdi, rcx
	mov	rsi, rax
	mov	ecx, 16
	rep movsb
	mov	rax, QWORD PTR info$[rsp]
	lea	rcx, QWORD PTR $T10[rsp]
	lea	rdi, QWORD PTR [rax+128]
	mov	rsi, rcx
	mov	ecx, 16
	rep movsb
; Line 1416
	xor	r8d, r8d
	xor	edx, edx
	lea	rcx, QWORD PTR $T26[rsp]
	call	?stbtt__new_buf@@YA?AUstbtt__buf@@PEBX_K@Z ; stbtt__new_buf
	lea	rcx, QWORD PTR $T11[rsp]
	mov	rdi, rcx
	mov	rsi, rax
	mov	ecx, 16
	rep movsb
	mov	rax, QWORD PTR info$[rsp]
	lea	rcx, QWORD PTR $T11[rsp]
	lea	rdi, QWORD PTR [rax+144]
	mov	rsi, rcx
	mov	ecx, 16
	rep movsb
; Line 1419
	mov	eax, DWORD PTR cff$6[rsp]
	mov	rcx, QWORD PTR data$[rsp]
	add	rcx, rax
	mov	rax, rcx
	mov	r8d, 536870912				; 20000000H
	mov	rdx, rax
	lea	rcx, QWORD PTR $T27[rsp]
	call	?stbtt__new_buf@@YA?AUstbtt__buf@@PEBX_K@Z ; stbtt__new_buf
	lea	rcx, QWORD PTR $T12[rsp]
	mov	rdi, rcx
	mov	rsi, rax
	mov	ecx, 16
	rep movsb
	mov	rax, QWORD PTR info$[rsp]
	lea	rcx, QWORD PTR $T12[rsp]
	lea	rdi, QWORD PTR [rax+64]
	mov	rsi, rcx
	mov	ecx, 16
	rep movsb
; Line 1420
	lea	rax, QWORD PTR b$5[rsp]
	mov	rcx, QWORD PTR info$[rsp]
	mov	rdi, rax
	lea	rsi, QWORD PTR [rcx+64]
	mov	ecx, 16
	rep movsb
; Line 1423
	mov	edx, 2
	lea	rcx, QWORD PTR b$5[rsp]
	call	?stbtt__buf_skip@@YAXPEAUstbtt__buf@@H@Z ; stbtt__buf_skip
; Line 1424
	lea	rcx, QWORD PTR b$5[rsp]
	call	?stbtt__buf_get8@@YAEPEAUstbtt__buf@@@Z	; stbtt__buf_get8
	movzx	eax, al
	mov	edx, eax
	lea	rcx, QWORD PTR b$5[rsp]
	call	?stbtt__buf_seek@@YAXPEAUstbtt__buf@@H@Z ; stbtt__buf_seek
	npad	1
; Line 1428
	lea	rdx, QWORD PTR b$5[rsp]
	lea	rcx, QWORD PTR $T28[rsp]
	call	?stbtt__cff_get_index@@YA?AUstbtt__buf@@PEAU1@@Z ; stbtt__cff_get_index
	lea	rcx, QWORD PTR $T29[rsp]
	mov	rdi, rcx
	mov	rsi, rax
	mov	ecx, 16
	rep movsb
; Line 1429
	lea	rdx, QWORD PTR b$5[rsp]
	lea	rcx, QWORD PTR $T30[rsp]
	call	?stbtt__cff_get_index@@YA?AUstbtt__buf@@PEAU1@@Z ; stbtt__cff_get_index
	lea	rcx, QWORD PTR $T13[rsp]
	mov	rdi, rcx
	mov	rsi, rax
	mov	ecx, 16
	rep movsb
	lea	rax, QWORD PTR topdictidx$14[rsp]
	lea	rcx, QWORD PTR $T13[rsp]
	mov	rdi, rax
	mov	rsi, rcx
	mov	ecx, 16
	rep movsb
; Line 1430
	lea	rax, QWORD PTR $T15[rsp]
	lea	rcx, QWORD PTR topdictidx$14[rsp]
	mov	rdi, rax
	mov	rsi, rcx
	mov	ecx, 16
	rep movsb
	xor	r8d, r8d
	lea	rdx, QWORD PTR $T15[rsp]
	lea	rcx, QWORD PTR $T31[rsp]
	call	?stbtt__cff_index_get@@YA?AUstbtt__buf@@U1@H@Z ; stbtt__cff_index_get
	lea	rcx, QWORD PTR $T16[rsp]
	mov	rdi, rcx
	mov	rsi, rax
	mov	ecx, 16
	rep movsb
	lea	rax, QWORD PTR topdict$8[rsp]
	lea	rcx, QWORD PTR $T16[rsp]
	mov	rdi, rax
	mov	rsi, rcx
	mov	ecx, 16
	rep movsb
; Line 1431
	lea	rdx, QWORD PTR b$5[rsp]
	lea	rcx, QWORD PTR $T32[rsp]
	call	?stbtt__cff_get_index@@YA?AUstbtt__buf@@PEAU1@@Z ; stbtt__cff_get_index
	lea	rcx, QWORD PTR $T33[rsp]
	mov	rdi, rcx
	mov	rsi, rax
	mov	ecx, 16
	rep movsb
; Line 1432
	lea	rdx, QWORD PTR b$5[rsp]
	lea	rcx, QWORD PTR $T34[rsp]
	call	?stbtt__cff_get_index@@YA?AUstbtt__buf@@PEAU1@@Z ; stbtt__cff_get_index
	lea	rcx, QWORD PTR $T17[rsp]
	mov	rdi, rcx
	mov	rsi, rax
	mov	ecx, 16
	rep movsb
	mov	rax, QWORD PTR info$[rsp]
	lea	rcx, QWORD PTR $T17[rsp]
	lea	rdi, QWORD PTR [rax+96]
	mov	rsi, rcx
	mov	ecx, 16
	rep movsb
; Line 1434
	lea	r9, QWORD PTR charstrings$4[rsp]
	mov	r8d, 1
	mov	edx, 17
	lea	rcx, QWORD PTR topdict$8[rsp]
	call	?stbtt__dict_get_ints@@YAXPEAUstbtt__buf@@HHPEAI@Z ; stbtt__dict_get_ints
; Line 1435
	lea	r9, QWORD PTR cstype$7[rsp]
	mov	r8d, 1
	mov	edx, 262				; 00000106H
	lea	rcx, QWORD PTR topdict$8[rsp]
	call	?stbtt__dict_get_ints@@YAXPEAUstbtt__buf@@HHPEAI@Z ; stbtt__dict_get_ints
; Line 1436
	lea	r9, QWORD PTR fdarrayoff$3[rsp]
	mov	r8d, 1
	mov	edx, 292				; 00000124H
	lea	rcx, QWORD PTR topdict$8[rsp]
	call	?stbtt__dict_get_ints@@YAXPEAUstbtt__buf@@HHPEAI@Z ; stbtt__dict_get_ints
; Line 1437
	lea	r9, QWORD PTR fdselectoff$1[rsp]
	mov	r8d, 1
	mov	edx, 293				; 00000125H
	lea	rcx, QWORD PTR topdict$8[rsp]
	call	?stbtt__dict_get_ints@@YAXPEAUstbtt__buf@@HHPEAI@Z ; stbtt__dict_get_ints
	npad	1
; Line 1438
	lea	rax, QWORD PTR $T18[rsp]
	lea	rcx, QWORD PTR topdict$8[rsp]
	mov	rdi, rax
	mov	rsi, rcx
	mov	ecx, 16
	rep movsb
	lea	rax, QWORD PTR $T19[rsp]
	lea	rcx, QWORD PTR b$5[rsp]
	mov	rdi, rax
	mov	rsi, rcx
	mov	ecx, 16
	rep movsb
	lea	r8, QWORD PTR $T18[rsp]
	lea	rdx, QWORD PTR $T19[rsp]
	lea	rcx, QWORD PTR $T35[rsp]
	call	?stbtt__get_subrs@@YA?AUstbtt__buf@@U1@0@Z ; stbtt__get_subrs
	lea	rcx, QWORD PTR $T20[rsp]
	mov	rdi, rcx
	mov	rsi, rax
	mov	ecx, 16
	rep movsb
	mov	rax, QWORD PTR info$[rsp]
	lea	rcx, QWORD PTR $T20[rsp]
	lea	rdi, QWORD PTR [rax+112]
	mov	rsi, rcx
	mov	ecx, 16
	rep movsb
; Line 1441
	cmp	DWORD PTR cstype$7[rsp], 2
	je	SHORT $LN15@stbtt_Init
	xor	eax, eax
	jmp	$LN1@stbtt_Init
$LN15@stbtt_Init:
; Line 1442
	cmp	DWORD PTR charstrings$4[rsp], 0
	jne	SHORT $LN16@stbtt_Init
	xor	eax, eax
	jmp	$LN1@stbtt_Init
$LN16@stbtt_Init:
; Line 1444
	cmp	DWORD PTR fdarrayoff$3[rsp], 0
	je	$LN17@stbtt_Init
; Line 1446
	cmp	DWORD PTR fdselectoff$1[rsp], 0
	jne	SHORT $LN18@stbtt_Init
	xor	eax, eax
	jmp	$LN1@stbtt_Init
$LN18@stbtt_Init:
; Line 1447
	mov	edx, DWORD PTR fdarrayoff$3[rsp]
	lea	rcx, QWORD PTR b$5[rsp]
	call	?stbtt__buf_seek@@YAXPEAUstbtt__buf@@H@Z ; stbtt__buf_seek
	npad	1
; Line 1448
	lea	rdx, QWORD PTR b$5[rsp]
	lea	rcx, QWORD PTR $T36[rsp]
	call	?stbtt__cff_get_index@@YA?AUstbtt__buf@@PEAU1@@Z ; stbtt__cff_get_index
	lea	rcx, QWORD PTR $T21[rsp]
	mov	rdi, rcx
	mov	rsi, rax
	mov	ecx, 16
	rep movsb
	mov	rax, QWORD PTR info$[rsp]
	lea	rcx, QWORD PTR $T21[rsp]
	lea	rdi, QWORD PTR [rax+128]
	mov	rsi, rcx
	mov	ecx, 16
	rep movsb
; Line 1449
	mov	eax, DWORD PTR fdselectoff$1[rsp]
	mov	ecx, DWORD PTR b$5[rsp+12]
	sub	ecx, eax
	mov	eax, ecx
	mov	r9d, eax
	mov	r8d, DWORD PTR fdselectoff$1[rsp]
	lea	rdx, QWORD PTR b$5[rsp]
	lea	rcx, QWORD PTR $T37[rsp]
	call	?stbtt__buf_range@@YA?AUstbtt__buf@@PEBU1@HH@Z ; stbtt__buf_range
	lea	rcx, QWORD PTR $T22[rsp]
	mov	rdi, rcx
	mov	rsi, rax
	mov	ecx, 16
	rep movsb
	mov	rax, QWORD PTR info$[rsp]
	lea	rcx, QWORD PTR $T22[rsp]
	lea	rdi, QWORD PTR [rax+144]
	mov	rsi, rcx
	mov	ecx, 16
	rep movsb
$LN17@stbtt_Init:
; Line 1452
	mov	edx, DWORD PTR charstrings$4[rsp]
	lea	rcx, QWORD PTR b$5[rsp]
	call	?stbtt__buf_seek@@YAXPEAUstbtt__buf@@H@Z ; stbtt__buf_seek
	npad	1
; Line 1453
	lea	rdx, QWORD PTR b$5[rsp]
	lea	rcx, QWORD PTR $T38[rsp]
	call	?stbtt__cff_get_index@@YA?AUstbtt__buf@@PEAU1@@Z ; stbtt__cff_get_index
	lea	rcx, QWORD PTR $T23[rsp]
	mov	rdi, rcx
	mov	rsi, rax
	mov	ecx, 16
	rep movsb
	mov	rax, QWORD PTR info$[rsp]
	lea	rcx, QWORD PTR $T23[rsp]
	lea	rdi, QWORD PTR [rax+80]
	mov	rsi, rcx
	mov	ecx, 16
	rep movsb
$LN12@stbtt_Init:
; Line 1456
	lea	r8, OFFSET FLAT:$SG54302
	mov	edx, DWORD PTR fontstart$[rsp]
	mov	rcx, QWORD PTR data$[rsp]
	call	?stbtt__find_table@@YAIPEAEIPEBD@Z	; stbtt__find_table
	mov	DWORD PTR t$[rsp], eax
; Line 1457
	cmp	DWORD PTR t$[rsp], 0
	je	SHORT $LN19@stbtt_Init
; Line 1458
	mov	eax, DWORD PTR t$[rsp]
	mov	rcx, QWORD PTR data$[rsp]
	lea	rax, QWORD PTR [rcx+rax+4]
	mov	rcx, rax
	call	?ttUSHORT@@YAGPEAE@Z			; ttUSHORT
	movzx	eax, ax
	mov	rcx, QWORD PTR info$[rsp]
	mov	DWORD PTR [rcx+20], eax
	jmp	SHORT $LN20@stbtt_Init
$LN19@stbtt_Init:
; Line 1460
	mov	rax, QWORD PTR info$[rsp]
	mov	DWORD PTR [rax+20], 65535		; 0000ffffH
$LN20@stbtt_Init:
; Line 1462
	mov	rax, QWORD PTR info$[rsp]
	mov	DWORD PTR [rax+52], -1
; Line 1467
	mov	eax, DWORD PTR cmap$[rsp]
	mov	rcx, QWORD PTR data$[rsp]
	lea	rax, QWORD PTR [rcx+rax+2]
	mov	rcx, rax
	call	?ttUSHORT@@YAGPEAE@Z			; ttUSHORT
	movzx	eax, ax
	mov	DWORD PTR numTables$[rsp], eax
; Line 1468
	mov	rax, QWORD PTR info$[rsp]
	mov	DWORD PTR [rax+56], 0
; Line 1469
	mov	DWORD PTR i$[rsp], 0
	jmp	SHORT $LN4@stbtt_Init
$LN2@stbtt_Init:
	mov	eax, DWORD PTR i$[rsp]
	inc	eax
	mov	DWORD PTR i$[rsp], eax
$LN4@stbtt_Init:
	mov	eax, DWORD PTR numTables$[rsp]
	cmp	DWORD PTR i$[rsp], eax
	jge	$LN3@stbtt_Init
; Line 1470
	mov	eax, DWORD PTR cmap$[rsp]
	mov	ecx, DWORD PTR i$[rsp]
	lea	eax, DWORD PTR [rax+rcx*8+4]
	mov	DWORD PTR encoding_record$2[rsp], eax
; Line 1472
	mov	eax, DWORD PTR encoding_record$2[rsp]
	mov	rcx, QWORD PTR data$[rsp]
	add	rcx, rax
	mov	rax, rcx
	mov	rcx, rax
	call	?ttUSHORT@@YAGPEAE@Z			; ttUSHORT
	movzx	eax, ax
	mov	DWORD PTR tv321[rsp], eax
	cmp	DWORD PTR tv321[rsp], 0
	je	SHORT $LN24@stbtt_Init
	cmp	DWORD PTR tv321[rsp], 3
	je	SHORT $LN21@stbtt_Init
	jmp	$LN5@stbtt_Init
$LN21@stbtt_Init:
; Line 1474
	mov	eax, DWORD PTR encoding_record$2[rsp]
	mov	rcx, QWORD PTR data$[rsp]
	lea	rax, QWORD PTR [rcx+rax+2]
	mov	rcx, rax
	call	?ttUSHORT@@YAGPEAE@Z			; ttUSHORT
	movzx	eax, ax
	mov	DWORD PTR tv328[rsp], eax
	cmp	DWORD PTR tv328[rsp], 1
	je	SHORT $LN22@stbtt_Init
	cmp	DWORD PTR tv328[rsp], 10
	je	SHORT $LN23@stbtt_Init
	jmp	SHORT $LN7@stbtt_Init
$LN22@stbtt_Init:
$LN23@stbtt_Init:
; Line 1478
	mov	eax, DWORD PTR encoding_record$2[rsp]
	mov	rcx, QWORD PTR data$[rsp]
	lea	rax, QWORD PTR [rcx+rax+4]
	mov	rcx, rax
	call	?ttULONG@@YAIPEAE@Z			; ttULONG
	mov	ecx, DWORD PTR cmap$[rsp]
	add	ecx, eax
	mov	eax, ecx
	mov	rcx, QWORD PTR info$[rsp]
	mov	DWORD PTR [rcx+56], eax
$LN7@stbtt_Init:
; Line 1481
	jmp	SHORT $LN5@stbtt_Init
$LN24@stbtt_Init:
; Line 1485
	mov	eax, DWORD PTR encoding_record$2[rsp]
	mov	rcx, QWORD PTR data$[rsp]
	lea	rax, QWORD PTR [rcx+rax+4]
	mov	rcx, rax
	call	?ttULONG@@YAIPEAE@Z			; ttULONG
	mov	ecx, DWORD PTR cmap$[rsp]
	add	ecx, eax
	mov	eax, ecx
	mov	rcx, QWORD PTR info$[rsp]
	mov	DWORD PTR [rcx+56], eax
$LN5@stbtt_Init:
; Line 1488
	jmp	$LN2@stbtt_Init
$LN3@stbtt_Init:
; Line 1489
	mov	rax, QWORD PTR info$[rsp]
	cmp	DWORD PTR [rax+56], 0
	jne	SHORT $LN25@stbtt_Init
; Line 1490
	xor	eax, eax
	jmp	SHORT $LN1@stbtt_Init
$LN25@stbtt_Init:
; Line 1492
	mov	rax, QWORD PTR info$[rsp]
	movsxd	rax, DWORD PTR [rax+28]
	mov	rcx, QWORD PTR data$[rsp]
	lea	rax, QWORD PTR [rcx+rax+50]
	mov	rcx, rax
	call	?ttUSHORT@@YAGPEAE@Z			; ttUSHORT
	movzx	eax, ax
	mov	rcx, QWORD PTR info$[rsp]
	mov	DWORD PTR [rcx+60], eax
; Line 1493
	mov	eax, 1
$LN1@stbtt_Init:
; Line 1494
	add	rsp, 600				; 00000258H
	pop	rdi
	pop	rsi
	ret	0
?stbtt_InitFont_internal@@YAHPEAUstbtt_fontinfo@@PEAEH@Z ENDP ; stbtt_InitFont_internal
_TEXT	ENDS
; Function compile flags: /Odtp
_TEXT	SEGMENT
subrsoff$ = 32
private_loc$ = 40
$T1 = 48
$T2 = 64
pdict$ = 80
$T3 = 96
$T4 = 112
$T5 = 128
$T6 = 144
$T7 = 160
$T8 = 176
__$ReturnAddress$ = 224
cff$ = 232
fontdict$ = 240
?stbtt__get_subrs@@YA?AUstbtt__buf@@U1@0@Z PROC		; stbtt__get_subrs
; File D:\TIME\code\stb_truetype.h
; Line 1355
	mov	QWORD PTR [rsp+24], r8
	mov	QWORD PTR [rsp+16], rdx
	mov	QWORD PTR [rsp+8], rcx
	push	rsi
	push	rdi
	sub	rsp, 200				; 000000c8H
; Line 1356
	mov	DWORD PTR subrsoff$[rsp], 0
	mov	DWORD PTR private_loc$[rsp], 0
	mov	DWORD PTR private_loc$[rsp+4], 0
; Line 1358
	lea	r9, QWORD PTR private_loc$[rsp]
	mov	r8d, 2
	mov	edx, 18
	mov	rcx, QWORD PTR fontdict$[rsp]
	call	?stbtt__dict_get_ints@@YAXPEAUstbtt__buf@@HHPEAI@Z ; stbtt__dict_get_ints
	npad	1
; Line 1359
	mov	eax, 4
	imul	rax, rax, 1
	cmp	DWORD PTR private_loc$[rsp+rax], 0
	je	SHORT $LN3@stbtt__get
	mov	eax, 4
	imul	rax, rax, 0
	cmp	DWORD PTR private_loc$[rsp+rax], 0
	jne	SHORT $LN2@stbtt__get
$LN3@stbtt__get:
	xor	r8d, r8d
	xor	edx, edx
	lea	rcx, QWORD PTR $T5[rsp]
	call	?stbtt__new_buf@@YA?AUstbtt__buf@@PEBX_K@Z ; stbtt__new_buf
	lea	rcx, QWORD PTR $T1[rsp]
	mov	rdi, rcx
	mov	rsi, rax
	mov	ecx, 16
	rep movsb
	lea	rax, QWORD PTR $T1[rsp]
	mov	rdi, QWORD PTR __$ReturnAddress$[rsp]
	mov	rsi, rax
	mov	ecx, 16
	rep movsb
	mov	rax, QWORD PTR __$ReturnAddress$[rsp]
	jmp	$LN1@stbtt__get
$LN2@stbtt__get:
; Line 1360
	mov	eax, 4
	imul	rax, rax, 0
	mov	ecx, 4
	imul	rcx, rcx, 1
	mov	r9d, DWORD PTR private_loc$[rsp+rax]
	mov	r8d, DWORD PTR private_loc$[rsp+rcx]
	mov	rdx, QWORD PTR cff$[rsp]
	lea	rcx, QWORD PTR $T6[rsp]
	call	?stbtt__buf_range@@YA?AUstbtt__buf@@PEBU1@HH@Z ; stbtt__buf_range
	lea	rcx, QWORD PTR $T2[rsp]
	mov	rdi, rcx
	mov	rsi, rax
	mov	ecx, 16
	rep movsb
	lea	rax, QWORD PTR pdict$[rsp]
	lea	rcx, QWORD PTR $T2[rsp]
	mov	rdi, rax
	mov	rsi, rcx
	mov	ecx, 16
	rep movsb
; Line 1361
	lea	r9, QWORD PTR subrsoff$[rsp]
	mov	r8d, 1
	mov	edx, 19
	lea	rcx, QWORD PTR pdict$[rsp]
	call	?stbtt__dict_get_ints@@YAXPEAUstbtt__buf@@HHPEAI@Z ; stbtt__dict_get_ints
	npad	1
; Line 1362
	cmp	DWORD PTR subrsoff$[rsp], 0
	jne	SHORT $LN4@stbtt__get
	xor	r8d, r8d
	xor	edx, edx
	lea	rcx, QWORD PTR $T7[rsp]
	call	?stbtt__new_buf@@YA?AUstbtt__buf@@PEBX_K@Z ; stbtt__new_buf
	lea	rcx, QWORD PTR $T3[rsp]
	mov	rdi, rcx
	mov	rsi, rax
	mov	ecx, 16
	rep movsb
	lea	rax, QWORD PTR $T3[rsp]
	mov	rdi, QWORD PTR __$ReturnAddress$[rsp]
	mov	rsi, rax
	mov	ecx, 16
	rep movsb
	mov	rax, QWORD PTR __$ReturnAddress$[rsp]
	jmp	SHORT $LN1@stbtt__get
$LN4@stbtt__get:
; Line 1363
	mov	eax, 4
	imul	rax, rax, 1
	mov	eax, DWORD PTR private_loc$[rsp+rax]
	add	eax, DWORD PTR subrsoff$[rsp]
	mov	edx, eax
	mov	rcx, QWORD PTR cff$[rsp]
	call	?stbtt__buf_seek@@YAXPEAUstbtt__buf@@H@Z ; stbtt__buf_seek
	npad	1
; Line 1364
	mov	rdx, QWORD PTR cff$[rsp]
	lea	rcx, QWORD PTR $T8[rsp]
	call	?stbtt__cff_get_index@@YA?AUstbtt__buf@@PEAU1@@Z ; stbtt__cff_get_index
	lea	rcx, QWORD PTR $T4[rsp]
	mov	rdi, rcx
	mov	rsi, rax
	mov	ecx, 16
	rep movsb
	lea	rax, QWORD PTR $T4[rsp]
	mov	rdi, QWORD PTR __$ReturnAddress$[rsp]
	mov	rsi, rax
	mov	ecx, 16
	rep movsb
	mov	rax, QWORD PTR __$ReturnAddress$[rsp]
$LN1@stbtt__get:
; Line 1365
	add	rsp, 200				; 000000c8H
	pop	rdi
	pop	rsi
	ret	0
?stbtt__get_subrs@@YA?AUstbtt__buf@@U1@0@Z ENDP		; stbtt__get_subrs
_TEXT	ENDS
; Function compile flags: /Odtp
_TEXT	SEGMENT
loc$1 = 32
i$ = 36
num_tables$ = 40
tabledir$ = 44
data$ = 64
fontstart$ = 72
tag$ = 80
?stbtt__find_table@@YAIPEAEIPEBD@Z PROC			; stbtt__find_table
; File D:\TIME\code\stb_truetype.h
; Line 1307
	mov	QWORD PTR [rsp+24], r8
	mov	DWORD PTR [rsp+16], edx
	mov	QWORD PTR [rsp+8], rcx
	sub	rsp, 56					; 00000038H
; Line 1308
	mov	eax, DWORD PTR fontstart$[rsp]
	mov	rcx, QWORD PTR data$[rsp]
	lea	rax, QWORD PTR [rcx+rax+4]
	mov	rcx, rax
	call	?ttUSHORT@@YAGPEAE@Z			; ttUSHORT
	movzx	eax, ax
	mov	DWORD PTR num_tables$[rsp], eax
; Line 1309
	mov	eax, DWORD PTR fontstart$[rsp]
	add	eax, 12
	mov	DWORD PTR tabledir$[rsp], eax
; Line 1311
	mov	DWORD PTR i$[rsp], 0
	jmp	SHORT $LN4@stbtt__fin
$LN2@stbtt__fin:
	mov	eax, DWORD PTR i$[rsp]
	inc	eax
	mov	DWORD PTR i$[rsp], eax
$LN4@stbtt__fin:
	mov	eax, DWORD PTR num_tables$[rsp]
	cmp	DWORD PTR i$[rsp], eax
	jge	$LN3@stbtt__fin
; Line 1312
	imul	eax, DWORD PTR i$[rsp], 16
	mov	ecx, DWORD PTR tabledir$[rsp]
	add	ecx, eax
	mov	eax, ecx
	mov	DWORD PTR loc$1[rsp], eax
; Line 1313
	mov	eax, DWORD PTR loc$1[rsp]
	mov	rcx, QWORD PTR data$[rsp]
	add	rcx, rax
	mov	rax, rcx
	mov	ecx, 1
	imul	rcx, rcx, 0
	movzx	eax, BYTE PTR [rax+rcx]
	mov	ecx, 1
	imul	rcx, rcx, 0
	mov	rdx, QWORD PTR tag$[rsp]
	movsx	ecx, BYTE PTR [rdx+rcx]
	cmp	eax, ecx
	jne	$LN5@stbtt__fin
	mov	eax, DWORD PTR loc$1[rsp]
	mov	rcx, QWORD PTR data$[rsp]
	add	rcx, rax
	mov	rax, rcx
	mov	ecx, 1
	imul	rcx, rcx, 1
	movzx	eax, BYTE PTR [rax+rcx]
	mov	ecx, 1
	imul	rcx, rcx, 1
	mov	rdx, QWORD PTR tag$[rsp]
	movsx	ecx, BYTE PTR [rdx+rcx]
	cmp	eax, ecx
	jne	SHORT $LN5@stbtt__fin
	mov	eax, DWORD PTR loc$1[rsp]
	mov	rcx, QWORD PTR data$[rsp]
	add	rcx, rax
	mov	rax, rcx
	mov	ecx, 1
	imul	rcx, rcx, 2
	movzx	eax, BYTE PTR [rax+rcx]
	mov	ecx, 1
	imul	rcx, rcx, 2
	mov	rdx, QWORD PTR tag$[rsp]
	movsx	ecx, BYTE PTR [rdx+rcx]
	cmp	eax, ecx
	jne	SHORT $LN5@stbtt__fin
	mov	eax, DWORD PTR loc$1[rsp]
	mov	rcx, QWORD PTR data$[rsp]
	add	rcx, rax
	mov	rax, rcx
	mov	ecx, 1
	imul	rcx, rcx, 3
	movzx	eax, BYTE PTR [rax+rcx]
	mov	ecx, 1
	imul	rcx, rcx, 3
	mov	rdx, QWORD PTR tag$[rsp]
	movsx	ecx, BYTE PTR [rdx+rcx]
	cmp	eax, ecx
	jne	SHORT $LN5@stbtt__fin
; Line 1314
	mov	eax, DWORD PTR loc$1[rsp]
	mov	rcx, QWORD PTR data$[rsp]
	lea	rax, QWORD PTR [rcx+rax+8]
	mov	rcx, rax
	call	?ttULONG@@YAIPEAE@Z			; ttULONG
	jmp	SHORT $LN1@stbtt__fin
$LN5@stbtt__fin:
; Line 1315
	jmp	$LN2@stbtt__fin
$LN3@stbtt__fin:
; Line 1316
	xor	eax, eax
$LN1@stbtt__fin:
; Line 1317
	add	rsp, 56					; 00000038H
	ret	0
?stbtt__find_table@@YAIPEAEIPEBD@Z ENDP			; stbtt__find_table
_TEXT	ENDS
; Function compile flags: /Odtp
_TEXT	SEGMENT
p$ = 8
?ttULONG@@YAIPEAE@Z PROC				; ttULONG
; File D:\TIME\code\stb_truetype.h
; Line 1288
	mov	QWORD PTR [rsp+8], rcx
	mov	eax, 1
	imul	rax, rax, 0
	mov	rcx, QWORD PTR p$[rsp]
	movzx	eax, BYTE PTR [rcx+rax]
	shl	eax, 24
	mov	ecx, 1
	imul	rcx, rcx, 1
	mov	rdx, QWORD PTR p$[rsp]
	movzx	ecx, BYTE PTR [rdx+rcx]
	shl	ecx, 16
	add	eax, ecx
	mov	ecx, 1
	imul	rcx, rcx, 2
	mov	rdx, QWORD PTR p$[rsp]
	movzx	ecx, BYTE PTR [rdx+rcx]
	shl	ecx, 8
	add	eax, ecx
	mov	ecx, 1
	imul	rcx, rcx, 3
	mov	rdx, QWORD PTR p$[rsp]
	movzx	ecx, BYTE PTR [rdx+rcx]
	add	eax, ecx
	ret	0
?ttULONG@@YAIPEAE@Z ENDP				; ttULONG
_TEXT	ENDS
; Function compile flags: /Odtp
_TEXT	SEGMENT
p$ = 8
?ttUSHORT@@YAGPEAE@Z PROC				; ttUSHORT
; File D:\TIME\code\stb_truetype.h
; Line 1286
	mov	QWORD PTR [rsp+8], rcx
	mov	eax, 1
	imul	rax, rax, 0
	mov	rcx, QWORD PTR p$[rsp]
	movzx	eax, BYTE PTR [rcx+rax]
	imul	eax, eax, 256				; 00000100H
	mov	ecx, 1
	imul	rcx, rcx, 1
	mov	rdx, QWORD PTR p$[rsp]
	movzx	ecx, BYTE PTR [rdx+rcx]
	add	eax, ecx
	ret	0
?ttUSHORT@@YAGPEAE@Z ENDP				; ttUSHORT
_TEXT	ENDS
; Function compile flags: /Odtp
_TEXT	SEGMENT
offsize$ = 32
count$ = 36
start$ = 40
end$ = 44
$T1 = 48
$T2 = 64
__$ReturnAddress$ = 112
b$ = 120
i$ = 128
?stbtt__cff_index_get@@YA?AUstbtt__buf@@U1@H@Z PROC	; stbtt__cff_index_get
; File D:\TIME\code\stb_truetype.h
; Line 1261
	mov	DWORD PTR [rsp+24], r8d
	mov	QWORD PTR [rsp+16], rdx
	mov	QWORD PTR [rsp+8], rcx
	push	rsi
	push	rdi
	sub	rsp, 88					; 00000058H
; Line 1263
	xor	edx, edx
	mov	rcx, QWORD PTR b$[rsp]
	call	?stbtt__buf_seek@@YAXPEAUstbtt__buf@@H@Z ; stbtt__buf_seek
; Line 1264
	mov	edx, 2
	mov	rcx, QWORD PTR b$[rsp]
	call	?stbtt__buf_get@@YAIPEAUstbtt__buf@@H@Z	; stbtt__buf_get
	mov	DWORD PTR count$[rsp], eax
; Line 1265
	mov	rcx, QWORD PTR b$[rsp]
	call	?stbtt__buf_get8@@YAEPEAUstbtt__buf@@@Z	; stbtt__buf_get8
	movzx	eax, al
	mov	DWORD PTR offsize$[rsp], eax
; Line 1266
	cmp	DWORD PTR i$[rsp], 0
	jl	SHORT $LN3@stbtt__cff
	mov	eax, DWORD PTR count$[rsp]
	cmp	DWORD PTR i$[rsp], eax
	jl	SHORT $LN4@stbtt__cff
$LN3@stbtt__cff:
	mov	r8d, 1266				; 000004f2H
	lea	rdx, OFFSET FLAT:$SG54145
	lea	rcx, OFFSET FLAT:$SG54146
	call	QWORD PTR __imp__wassert
	xor	eax, eax
$LN4@stbtt__cff:
; Line 1267
	cmp	DWORD PTR offsize$[rsp], 1
	jl	SHORT $LN5@stbtt__cff
	cmp	DWORD PTR offsize$[rsp], 4
	jle	SHORT $LN6@stbtt__cff
$LN5@stbtt__cff:
	mov	r8d, 1267				; 000004f3H
	lea	rdx, OFFSET FLAT:$SG54147
	lea	rcx, OFFSET FLAT:$SG54148
	call	QWORD PTR __imp__wassert
	xor	eax, eax
$LN6@stbtt__cff:
; Line 1268
	mov	eax, DWORD PTR i$[rsp]
	imul	eax, DWORD PTR offsize$[rsp]
	mov	edx, eax
	mov	rcx, QWORD PTR b$[rsp]
	call	?stbtt__buf_skip@@YAXPEAUstbtt__buf@@H@Z ; stbtt__buf_skip
; Line 1269
	mov	edx, DWORD PTR offsize$[rsp]
	mov	rcx, QWORD PTR b$[rsp]
	call	?stbtt__buf_get@@YAIPEAUstbtt__buf@@H@Z	; stbtt__buf_get
	mov	DWORD PTR start$[rsp], eax
; Line 1270
	mov	edx, DWORD PTR offsize$[rsp]
	mov	rcx, QWORD PTR b$[rsp]
	call	?stbtt__buf_get@@YAIPEAUstbtt__buf@@H@Z	; stbtt__buf_get
	mov	DWORD PTR end$[rsp], eax
; Line 1271
	mov	eax, DWORD PTR start$[rsp]
	mov	ecx, DWORD PTR end$[rsp]
	sub	ecx, eax
	mov	eax, ecx
	mov	ecx, DWORD PTR count$[rsp]
	inc	ecx
	imul	ecx, DWORD PTR offsize$[rsp]
	mov	edx, DWORD PTR start$[rsp]
	lea	ecx, DWORD PTR [rcx+rdx+2]
	mov	r9d, eax
	mov	r8d, ecx
	mov	rdx, QWORD PTR b$[rsp]
	lea	rcx, QWORD PTR $T2[rsp]
	call	?stbtt__buf_range@@YA?AUstbtt__buf@@PEBU1@HH@Z ; stbtt__buf_range
	lea	rcx, QWORD PTR $T1[rsp]
	mov	rdi, rcx
	mov	rsi, rax
	mov	ecx, 16
	rep movsb
	lea	rax, QWORD PTR $T1[rsp]
	mov	rdi, QWORD PTR __$ReturnAddress$[rsp]
	mov	rsi, rax
	mov	ecx, 16
	rep movsb
	mov	rax, QWORD PTR __$ReturnAddress$[rsp]
; Line 1272
	add	rsp, 88					; 00000058H
	pop	rdi
	pop	rsi
	ret	0
?stbtt__cff_index_get@@YA?AUstbtt__buf@@U1@H@Z ENDP	; stbtt__cff_index_get
_TEXT	ENDS
; Function compile flags: /Odtp
_TEXT	SEGMENT
i$ = 32
operands$ = 40
$T1 = 56
$T2 = 72
b$ = 128
key$ = 136
outcount$ = 144
out$ = 152
?stbtt__dict_get_ints@@YAXPEAUstbtt__buf@@HHPEAI@Z PROC	; stbtt__dict_get_ints
; File D:\TIME\code\stb_truetype.h
; Line 1247
	mov	QWORD PTR [rsp+32], r9
	mov	DWORD PTR [rsp+24], r8d
	mov	DWORD PTR [rsp+16], edx
	mov	QWORD PTR [rsp+8], rcx
	push	rsi
	push	rdi
	sub	rsp, 104				; 00000068H
; Line 1249
	mov	r8d, DWORD PTR key$[rsp]
	mov	rdx, QWORD PTR b$[rsp]
	lea	rcx, QWORD PTR $T2[rsp]
	call	?stbtt__dict_get@@YA?AUstbtt__buf@@PEAU1@H@Z ; stbtt__dict_get
	lea	rcx, QWORD PTR $T1[rsp]
	mov	rdi, rcx
	mov	rsi, rax
	mov	ecx, 16
	rep movsb
	lea	rax, QWORD PTR operands$[rsp]
	lea	rcx, QWORD PTR $T1[rsp]
	mov	rdi, rax
	mov	rsi, rcx
	mov	ecx, 16
	rep movsb
; Line 1250
	mov	DWORD PTR i$[rsp], 0
	jmp	SHORT $LN4@stbtt__dic
$LN2@stbtt__dic:
	mov	eax, DWORD PTR i$[rsp]
	inc	eax
	mov	DWORD PTR i$[rsp], eax
$LN4@stbtt__dic:
	mov	eax, DWORD PTR outcount$[rsp]
	cmp	DWORD PTR i$[rsp], eax
	jge	SHORT $LN3@stbtt__dic
	mov	eax, DWORD PTR operands$[rsp+12]
	cmp	DWORD PTR operands$[rsp+8], eax
	jge	SHORT $LN3@stbtt__dic
; Line 1251
	lea	rcx, QWORD PTR operands$[rsp]
	call	?stbtt__cff_int@@YAIPEAUstbtt__buf@@@Z	; stbtt__cff_int
	movsxd	rcx, DWORD PTR i$[rsp]
	mov	rdx, QWORD PTR out$[rsp]
	mov	DWORD PTR [rdx+rcx*4], eax
	jmp	SHORT $LN2@stbtt__dic
$LN3@stbtt__dic:
; Line 1252
	add	rsp, 104				; 00000068H
	pop	rdi
	pop	rsi
	ret	0
?stbtt__dict_get_ints@@YAXPEAUstbtt__buf@@HHPEAI@Z ENDP	; stbtt__dict_get_ints
_TEXT	ENDS
; Function compile flags: /Odtp
_TEXT	SEGMENT
op$1 = 32
start$2 = 36
end$3 = 40
$T4 = 48
$T5 = 64
$T6 = 80
$T7 = 96
__$ReturnAddress$ = 144
b$ = 152
key$ = 160
?stbtt__dict_get@@YA?AUstbtt__buf@@PEAU1@H@Z PROC	; stbtt__dict_get
; File D:\TIME\code\stb_truetype.h
; Line 1232
	mov	DWORD PTR [rsp+24], r8d
	mov	QWORD PTR [rsp+16], rdx
	mov	QWORD PTR [rsp+8], rcx
	push	rsi
	push	rdi
	sub	rsp, 120				; 00000078H
; Line 1233
	xor	edx, edx
	mov	rcx, QWORD PTR b$[rsp]
	call	?stbtt__buf_seek@@YAXPEAUstbtt__buf@@H@Z ; stbtt__buf_seek
	npad	1
$LN2@stbtt__dic:
; Line 1234
	mov	rax, QWORD PTR b$[rsp]
	mov	rcx, QWORD PTR b$[rsp]
	mov	ecx, DWORD PTR [rcx+12]
	cmp	DWORD PTR [rax+8], ecx
	jge	$LN3@stbtt__dic
; Line 1235
	mov	rax, QWORD PTR b$[rsp]
	mov	eax, DWORD PTR [rax+8]
	mov	DWORD PTR start$2[rsp], eax
$LN4@stbtt__dic:
; Line 1236
	mov	rcx, QWORD PTR b$[rsp]
	call	?stbtt__buf_peek8@@YAEPEAUstbtt__buf@@@Z ; stbtt__buf_peek8
	movzx	eax, al
	cmp	eax, 28
	jl	SHORT $LN5@stbtt__dic
; Line 1237
	mov	rcx, QWORD PTR b$[rsp]
	call	?stbtt__cff_skip_operand@@YAXPEAUstbtt__buf@@@Z ; stbtt__cff_skip_operand
	npad	1
	jmp	SHORT $LN4@stbtt__dic
$LN5@stbtt__dic:
; Line 1238
	mov	rax, QWORD PTR b$[rsp]
	mov	eax, DWORD PTR [rax+8]
	mov	DWORD PTR end$3[rsp], eax
; Line 1239
	mov	rcx, QWORD PTR b$[rsp]
	call	?stbtt__buf_get8@@YAEPEAUstbtt__buf@@@Z	; stbtt__buf_get8
	movzx	eax, al
	mov	DWORD PTR op$1[rsp], eax
; Line 1240
	cmp	DWORD PTR op$1[rsp], 12
	jne	SHORT $LN6@stbtt__dic
	mov	rcx, QWORD PTR b$[rsp]
	call	?stbtt__buf_get8@@YAEPEAUstbtt__buf@@@Z	; stbtt__buf_get8
	movzx	eax, al
	bts	eax, 8
	mov	DWORD PTR op$1[rsp], eax
$LN6@stbtt__dic:
; Line 1241
	mov	eax, DWORD PTR key$[rsp]
	cmp	DWORD PTR op$1[rsp], eax
	jne	SHORT $LN7@stbtt__dic
	mov	eax, DWORD PTR start$2[rsp]
	mov	ecx, DWORD PTR end$3[rsp]
	sub	ecx, eax
	mov	eax, ecx
	mov	r9d, eax
	mov	r8d, DWORD PTR start$2[rsp]
	mov	rdx, QWORD PTR b$[rsp]
	lea	rcx, QWORD PTR $T6[rsp]
	call	?stbtt__buf_range@@YA?AUstbtt__buf@@PEBU1@HH@Z ; stbtt__buf_range
	lea	rcx, QWORD PTR $T4[rsp]
	mov	rdi, rcx
	mov	rsi, rax
	mov	ecx, 16
	rep movsb
	lea	rax, QWORD PTR $T4[rsp]
	mov	rdi, QWORD PTR __$ReturnAddress$[rsp]
	mov	rsi, rax
	mov	ecx, 16
	rep movsb
	mov	rax, QWORD PTR __$ReturnAddress$[rsp]
	jmp	SHORT $LN1@stbtt__dic
$LN7@stbtt__dic:
; Line 1242
	jmp	$LN2@stbtt__dic
$LN3@stbtt__dic:
; Line 1243
	xor	r9d, r9d
	xor	r8d, r8d
	mov	rdx, QWORD PTR b$[rsp]
	lea	rcx, QWORD PTR $T7[rsp]
	call	?stbtt__buf_range@@YA?AUstbtt__buf@@PEBU1@HH@Z ; stbtt__buf_range
	lea	rcx, QWORD PTR $T5[rsp]
	mov	rdi, rcx
	mov	rsi, rax
	mov	ecx, 16
	rep movsb
	lea	rax, QWORD PTR $T5[rsp]
	mov	rdi, QWORD PTR __$ReturnAddress$[rsp]
	mov	rsi, rax
	mov	ecx, 16
	rep movsb
	mov	rax, QWORD PTR __$ReturnAddress$[rsp]
$LN1@stbtt__dic:
; Line 1244
	add	rsp, 120				; 00000078H
	pop	rdi
	pop	rsi
	ret	0
?stbtt__dict_get@@YA?AUstbtt__buf@@PEAU1@H@Z ENDP	; stbtt__dict_get
_TEXT	ENDS
; Function compile flags: /Odtp
_TEXT	SEGMENT
b0$ = 32
v$ = 36
b$ = 64
?stbtt__cff_skip_operand@@YAXPEAUstbtt__buf@@@Z PROC	; stbtt__cff_skip_operand
; File D:\TIME\code\stb_truetype.h
; Line 1216
	mov	QWORD PTR [rsp+8], rcx
	sub	rsp, 56					; 00000038H
; Line 1217
	mov	rcx, QWORD PTR b$[rsp]
	call	?stbtt__buf_peek8@@YAEPEAUstbtt__buf@@@Z ; stbtt__buf_peek8
	movzx	eax, al
	mov	DWORD PTR b0$[rsp], eax
; Line 1218
	cmp	DWORD PTR b0$[rsp], 28
	jge	SHORT $LN9@stbtt__cff
	mov	r8d, 1218				; 000004c2H
	lea	rdx, OFFSET FLAT:$SG54096
	lea	rcx, OFFSET FLAT:$SG54097
	call	QWORD PTR __imp__wassert
	xor	eax, eax
$LN9@stbtt__cff:
; Line 1219
	cmp	DWORD PTR b0$[rsp], 30
	jne	SHORT $LN4@stbtt__cff
; Line 1220
	mov	edx, 1
	mov	rcx, QWORD PTR b$[rsp]
	call	?stbtt__buf_skip@@YAXPEAUstbtt__buf@@H@Z ; stbtt__buf_skip
	npad	1
$LN2@stbtt__cff:
; Line 1221
	mov	rax, QWORD PTR b$[rsp]
	mov	rcx, QWORD PTR b$[rsp]
	mov	ecx, DWORD PTR [rcx+12]
	cmp	DWORD PTR [rax+8], ecx
	jge	SHORT $LN3@stbtt__cff
; Line 1222
	mov	rcx, QWORD PTR b$[rsp]
	call	?stbtt__buf_get8@@YAEPEAUstbtt__buf@@@Z	; stbtt__buf_get8
	movzx	eax, al
	mov	DWORD PTR v$[rsp], eax
; Line 1223
	mov	eax, DWORD PTR v$[rsp]
	and	eax, 15
	cmp	eax, 15
	je	SHORT $LN7@stbtt__cff
	mov	eax, DWORD PTR v$[rsp]
	sar	eax, 4
	cmp	eax, 15
	jne	SHORT $LN6@stbtt__cff
$LN7@stbtt__cff:
; Line 1224
	jmp	SHORT $LN3@stbtt__cff
$LN6@stbtt__cff:
; Line 1225
	jmp	SHORT $LN2@stbtt__cff
$LN3@stbtt__cff:
; Line 1226
	jmp	SHORT $LN5@stbtt__cff
$LN4@stbtt__cff:
; Line 1227
	mov	rcx, QWORD PTR b$[rsp]
	call	?stbtt__cff_int@@YAIPEAUstbtt__buf@@@Z	; stbtt__cff_int
	npad	1
$LN5@stbtt__cff:
; Line 1229
	add	rsp, 56					; 00000038H
	ret	0
?stbtt__cff_skip_operand@@YAXPEAUstbtt__buf@@@Z ENDP	; stbtt__cff_skip_operand
_TEXT	ENDS
; Function compile flags: /Odtp
_TEXT	SEGMENT
b0$ = 32
tv73 = 36
tv83 = 40
b$ = 64
?stbtt__cff_int@@YAIPEAUstbtt__buf@@@Z PROC		; stbtt__cff_int
; File D:\TIME\code\stb_truetype.h
; Line 1205
	mov	QWORD PTR [rsp+8], rcx
	sub	rsp, 56					; 00000038H
; Line 1206
	mov	rcx, QWORD PTR b$[rsp]
	call	?stbtt__buf_get8@@YAEPEAUstbtt__buf@@@Z	; stbtt__buf_get8
	movzx	eax, al
	mov	DWORD PTR b0$[rsp], eax
; Line 1207
	cmp	DWORD PTR b0$[rsp], 32			; 00000020H
	jl	SHORT $LN2@stbtt__cff
	cmp	DWORD PTR b0$[rsp], 246			; 000000f6H
	jg	SHORT $LN2@stbtt__cff
	mov	eax, DWORD PTR b0$[rsp]
	sub	eax, 139				; 0000008bH
	jmp	$LN1@stbtt__cff
	jmp	$LN3@stbtt__cff
$LN2@stbtt__cff:
; Line 1208
	cmp	DWORD PTR b0$[rsp], 247			; 000000f7H
	jl	SHORT $LN4@stbtt__cff
	cmp	DWORD PTR b0$[rsp], 250			; 000000faH
	jg	SHORT $LN4@stbtt__cff
	mov	eax, DWORD PTR b0$[rsp]
	sub	eax, 247				; 000000f7H
	imul	eax, eax, 256				; 00000100H
	mov	DWORD PTR tv73[rsp], eax
	mov	rcx, QWORD PTR b$[rsp]
	call	?stbtt__buf_get8@@YAEPEAUstbtt__buf@@@Z	; stbtt__buf_get8
	movzx	eax, al
	mov	ecx, DWORD PTR tv73[rsp]
	lea	eax, DWORD PTR [rcx+rax+108]
	jmp	$LN1@stbtt__cff
	jmp	SHORT $LN5@stbtt__cff
$LN4@stbtt__cff:
; Line 1209
	cmp	DWORD PTR b0$[rsp], 251			; 000000fbH
	jl	SHORT $LN6@stbtt__cff
	cmp	DWORD PTR b0$[rsp], 254			; 000000feH
	jg	SHORT $LN6@stbtt__cff
	mov	eax, DWORD PTR b0$[rsp]
	sub	eax, 251				; 000000fbH
	neg	eax
	imul	eax, eax, 256				; 00000100H
	mov	DWORD PTR tv83[rsp], eax
	mov	rcx, QWORD PTR b$[rsp]
	call	?stbtt__buf_get8@@YAEPEAUstbtt__buf@@@Z	; stbtt__buf_get8
	movzx	eax, al
	mov	ecx, DWORD PTR tv83[rsp]
	sub	ecx, eax
	mov	eax, ecx
	sub	eax, 108				; 0000006cH
	jmp	SHORT $LN1@stbtt__cff
	jmp	SHORT $LN7@stbtt__cff
$LN6@stbtt__cff:
; Line 1210
	cmp	DWORD PTR b0$[rsp], 28
	jne	SHORT $LN8@stbtt__cff
	mov	edx, 2
	mov	rcx, QWORD PTR b$[rsp]
	call	?stbtt__buf_get@@YAIPEAUstbtt__buf@@H@Z	; stbtt__buf_get
	jmp	SHORT $LN1@stbtt__cff
	jmp	SHORT $LN9@stbtt__cff
$LN8@stbtt__cff:
; Line 1211
	cmp	DWORD PTR b0$[rsp], 29
	jne	SHORT $LN10@stbtt__cff
	mov	edx, 4
	mov	rcx, QWORD PTR b$[rsp]
	call	?stbtt__buf_get@@YAIPEAUstbtt__buf@@H@Z	; stbtt__buf_get
	jmp	SHORT $LN1@stbtt__cff
$LN10@stbtt__cff:
$LN9@stbtt__cff:
$LN7@stbtt__cff:
$LN5@stbtt__cff:
$LN3@stbtt__cff:
; Line 1212
	xor	eax, eax
	test	eax, eax
	jne	SHORT $LN12@stbtt__cff
	mov	r8d, 1212				; 000004bcH
	lea	rdx, OFFSET FLAT:$SG54085
	lea	rcx, OFFSET FLAT:$SG54086
	call	QWORD PTR __imp__wassert
	xor	eax, eax
$LN12@stbtt__cff:
; Line 1213
	xor	eax, eax
$LN1@stbtt__cff:
; Line 1214
	add	rsp, 56					; 00000038H
	ret	0
?stbtt__cff_int@@YAIPEAUstbtt__buf@@@Z ENDP		; stbtt__cff_int
_TEXT	ENDS
; Function compile flags: /Odtp
_TEXT	SEGMENT
offsize$ = 32
count$ = 36
start$ = 40
$T1 = 48
$T2 = 64
__$ReturnAddress$ = 112
b$ = 120
?stbtt__cff_get_index@@YA?AUstbtt__buf@@PEAU1@@Z PROC	; stbtt__cff_get_index
; File D:\TIME\code\stb_truetype.h
; Line 1191
	mov	QWORD PTR [rsp+16], rdx
	mov	QWORD PTR [rsp+8], rcx
	push	rsi
	push	rdi
	sub	rsp, 88					; 00000058H
; Line 1193
	mov	rax, QWORD PTR b$[rsp]
	mov	eax, DWORD PTR [rax+8]
	mov	DWORD PTR start$[rsp], eax
; Line 1194
	mov	edx, 2
	mov	rcx, QWORD PTR b$[rsp]
	call	?stbtt__buf_get@@YAIPEAUstbtt__buf@@H@Z	; stbtt__buf_get
	mov	DWORD PTR count$[rsp], eax
; Line 1195
	cmp	DWORD PTR count$[rsp], 0
	je	SHORT $LN2@stbtt__cff
; Line 1196
	mov	rcx, QWORD PTR b$[rsp]
	call	?stbtt__buf_get8@@YAEPEAUstbtt__buf@@@Z	; stbtt__buf_get8
	movzx	eax, al
	mov	DWORD PTR offsize$[rsp], eax
; Line 1197
	cmp	DWORD PTR offsize$[rsp], 1
	jl	SHORT $LN4@stbtt__cff
	cmp	DWORD PTR offsize$[rsp], 4
	jle	SHORT $LN5@stbtt__cff
$LN4@stbtt__cff:
	mov	r8d, 1197				; 000004adH
	lea	rdx, OFFSET FLAT:$SG54068
	lea	rcx, OFFSET FLAT:$SG54069
	call	QWORD PTR __imp__wassert
	xor	eax, eax
$LN5@stbtt__cff:
; Line 1198
	mov	eax, DWORD PTR offsize$[rsp]
	imul	eax, DWORD PTR count$[rsp]
	mov	edx, eax
	mov	rcx, QWORD PTR b$[rsp]
	call	?stbtt__buf_skip@@YAXPEAUstbtt__buf@@H@Z ; stbtt__buf_skip
; Line 1199
	mov	edx, DWORD PTR offsize$[rsp]
	mov	rcx, QWORD PTR b$[rsp]
	call	?stbtt__buf_get@@YAIPEAUstbtt__buf@@H@Z	; stbtt__buf_get
	dec	eax
	mov	edx, eax
	mov	rcx, QWORD PTR b$[rsp]
	call	?stbtt__buf_skip@@YAXPEAUstbtt__buf@@H@Z ; stbtt__buf_skip
	npad	1
$LN2@stbtt__cff:
; Line 1201
	mov	rax, QWORD PTR b$[rsp]
	mov	ecx, DWORD PTR start$[rsp]
	mov	eax, DWORD PTR [rax+8]
	sub	eax, ecx
	mov	r9d, eax
	mov	r8d, DWORD PTR start$[rsp]
	mov	rdx, QWORD PTR b$[rsp]
	lea	rcx, QWORD PTR $T2[rsp]
	call	?stbtt__buf_range@@YA?AUstbtt__buf@@PEBU1@HH@Z ; stbtt__buf_range
	lea	rcx, QWORD PTR $T1[rsp]
	mov	rdi, rcx
	mov	rsi, rax
	mov	ecx, 16
	rep movsb
	lea	rax, QWORD PTR $T1[rsp]
	mov	rdi, QWORD PTR __$ReturnAddress$[rsp]
	mov	rsi, rax
	mov	ecx, 16
	rep movsb
	mov	rax, QWORD PTR __$ReturnAddress$[rsp]
; Line 1202
	add	rsp, 88					; 00000058H
	pop	rdi
	pop	rsi
	ret	0
?stbtt__cff_get_index@@YA?AUstbtt__buf@@PEAU1@@Z ENDP	; stbtt__cff_get_index
_TEXT	ENDS
; Function compile flags: /Odtp
_TEXT	SEGMENT
r$ = 32
$T1 = 48
$T2 = 64
__$ReturnAddress$ = 112
b$ = 120
o$ = 128
s$ = 136
?stbtt__buf_range@@YA?AUstbtt__buf@@PEBU1@HH@Z PROC	; stbtt__buf_range
; File D:\TIME\code\stb_truetype.h
; Line 1182
	mov	DWORD PTR [rsp+32], r9d
	mov	DWORD PTR [rsp+24], r8d
	mov	QWORD PTR [rsp+16], rdx
	mov	QWORD PTR [rsp+8], rcx
	push	rsi
	push	rdi
	sub	rsp, 88					; 00000058H
; Line 1183
	xor	r8d, r8d
	xor	edx, edx
	lea	rcx, QWORD PTR $T2[rsp]
	call	?stbtt__new_buf@@YA?AUstbtt__buf@@PEBX_K@Z ; stbtt__new_buf
	lea	rcx, QWORD PTR $T1[rsp]
	mov	rdi, rcx
	mov	rsi, rax
	mov	ecx, 16
	rep movsb
	lea	rax, QWORD PTR r$[rsp]
	lea	rcx, QWORD PTR $T1[rsp]
	mov	rdi, rax
	mov	rsi, rcx
	mov	ecx, 16
	rep movsb
; Line 1184
	cmp	DWORD PTR o$[rsp], 0
	jl	SHORT $LN3@stbtt__buf
	cmp	DWORD PTR s$[rsp], 0
	jl	SHORT $LN3@stbtt__buf
	mov	rax, QWORD PTR b$[rsp]
	mov	eax, DWORD PTR [rax+12]
	cmp	DWORD PTR o$[rsp], eax
	jg	SHORT $LN3@stbtt__buf
	mov	rax, QWORD PTR b$[rsp]
	mov	ecx, DWORD PTR o$[rsp]
	mov	eax, DWORD PTR [rax+12]
	sub	eax, ecx
	cmp	DWORD PTR s$[rsp], eax
	jle	SHORT $LN2@stbtt__buf
$LN3@stbtt__buf:
	lea	rax, QWORD PTR r$[rsp]
	mov	rdi, QWORD PTR __$ReturnAddress$[rsp]
	mov	rsi, rax
	mov	ecx, 16
	rep movsb
	mov	rax, QWORD PTR __$ReturnAddress$[rsp]
	jmp	SHORT $LN1@stbtt__buf
$LN2@stbtt__buf:
; Line 1185
	movsxd	rax, DWORD PTR o$[rsp]
	mov	rcx, QWORD PTR b$[rsp]
	add	rax, QWORD PTR [rcx]
	mov	QWORD PTR r$[rsp], rax
; Line 1186
	mov	eax, DWORD PTR s$[rsp]
	mov	DWORD PTR r$[rsp+12], eax
; Line 1187
	lea	rax, QWORD PTR r$[rsp]
	mov	rdi, QWORD PTR __$ReturnAddress$[rsp]
	mov	rsi, rax
	mov	ecx, 16
	rep movsb
	mov	rax, QWORD PTR __$ReturnAddress$[rsp]
$LN1@stbtt__buf:
; Line 1188
	add	rsp, 88					; 00000058H
	pop	rdi
	pop	rsi
	ret	0
?stbtt__buf_range@@YA?AUstbtt__buf@@PEBU1@HH@Z ENDP	; stbtt__buf_range
_TEXT	ENDS
; Function compile flags: /Odtp
_TEXT	SEGMENT
r$ = 32
__$ReturnAddress$ = 80
p$ = 88
size$ = 96
?stbtt__new_buf@@YA?AUstbtt__buf@@PEBX_K@Z PROC		; stbtt__new_buf
; File D:\TIME\code\stb_truetype.h
; Line 1169
	mov	QWORD PTR [rsp+24], r8
	mov	QWORD PTR [rsp+16], rdx
	mov	QWORD PTR [rsp+8], rcx
	push	rsi
	push	rdi
	sub	rsp, 56					; 00000038H
; Line 1171
	cmp	QWORD PTR size$[rsp], 1073741824	; 40000000H
	jb	SHORT $LN3@stbtt__new
	mov	r8d, 1171				; 00000493H
	lea	rdx, OFFSET FLAT:$SG54047
	lea	rcx, OFFSET FLAT:$SG54048
	call	QWORD PTR __imp__wassert
	xor	eax, eax
$LN3@stbtt__new:
; Line 1172
	mov	rax, QWORD PTR p$[rsp]
	mov	QWORD PTR r$[rsp], rax
; Line 1173
	mov	eax, DWORD PTR size$[rsp]
	mov	DWORD PTR r$[rsp+12], eax
; Line 1174
	mov	DWORD PTR r$[rsp+8], 0
; Line 1175
	lea	rax, QWORD PTR r$[rsp]
	mov	rdi, QWORD PTR __$ReturnAddress$[rsp]
	mov	rsi, rax
	mov	ecx, 16
	rep movsb
	mov	rax, QWORD PTR __$ReturnAddress$[rsp]
; Line 1176
	add	rsp, 56					; 00000038H
	pop	rdi
	pop	rsi
	ret	0
?stbtt__new_buf@@YA?AUstbtt__buf@@PEBX_K@Z ENDP		; stbtt__new_buf
_TEXT	ENDS
; Function compile flags: /Odtp
_TEXT	SEGMENT
i$ = 32
v$ = 36
tv72 = 40
b$ = 64
n$ = 72
?stbtt__buf_get@@YAIPEAUstbtt__buf@@H@Z PROC		; stbtt__buf_get
; File D:\TIME\code\stb_truetype.h
; Line 1159
	mov	DWORD PTR [rsp+16], edx
	mov	QWORD PTR [rsp+8], rcx
	sub	rsp, 56					; 00000038H
; Line 1160
	mov	DWORD PTR v$[rsp], 0
; Line 1162
	cmp	DWORD PTR n$[rsp], 1
	jl	SHORT $LN6@stbtt__buf
	cmp	DWORD PTR n$[rsp], 4
	jle	SHORT $LN7@stbtt__buf
$LN6@stbtt__buf:
	mov	r8d, 1162				; 0000048aH
	lea	rdx, OFFSET FLAT:$SG54036
	lea	rcx, OFFSET FLAT:$SG54037
	call	QWORD PTR __imp__wassert
	xor	eax, eax
$LN7@stbtt__buf:
; Line 1163
	mov	DWORD PTR i$[rsp], 0
	jmp	SHORT $LN4@stbtt__buf
$LN2@stbtt__buf:
	mov	eax, DWORD PTR i$[rsp]
	inc	eax
	mov	DWORD PTR i$[rsp], eax
$LN4@stbtt__buf:
	mov	eax, DWORD PTR n$[rsp]
	cmp	DWORD PTR i$[rsp], eax
	jge	SHORT $LN3@stbtt__buf
; Line 1164
	mov	eax, DWORD PTR v$[rsp]
	shl	eax, 8
	mov	DWORD PTR tv72[rsp], eax
	mov	rcx, QWORD PTR b$[rsp]
	call	?stbtt__buf_get8@@YAEPEAUstbtt__buf@@@Z	; stbtt__buf_get8
	movzx	eax, al
	mov	ecx, DWORD PTR tv72[rsp]
	or	ecx, eax
	mov	eax, ecx
	mov	DWORD PTR v$[rsp], eax
	jmp	SHORT $LN2@stbtt__buf
$LN3@stbtt__buf:
; Line 1165
	mov	eax, DWORD PTR v$[rsp]
; Line 1166
	add	rsp, 56					; 00000038H
	ret	0
?stbtt__buf_get@@YAIPEAUstbtt__buf@@H@Z ENDP		; stbtt__buf_get
_TEXT	ENDS
; Function compile flags: /Odtp
_TEXT	SEGMENT
b$ = 48
o$ = 56
?stbtt__buf_skip@@YAXPEAUstbtt__buf@@H@Z PROC		; stbtt__buf_skip
; File D:\TIME\code\stb_truetype.h
; Line 1154
	mov	DWORD PTR [rsp+16], edx
	mov	QWORD PTR [rsp+8], rcx
	sub	rsp, 40					; 00000028H
; Line 1155
	mov	rax, QWORD PTR b$[rsp]
	mov	eax, DWORD PTR [rax+8]
	add	eax, DWORD PTR o$[rsp]
	mov	edx, eax
	mov	rcx, QWORD PTR b$[rsp]
	call	?stbtt__buf_seek@@YAXPEAUstbtt__buf@@H@Z ; stbtt__buf_seek
	npad	1
; Line 1156
	add	rsp, 40					; 00000028H
	ret	0
?stbtt__buf_skip@@YAXPEAUstbtt__buf@@H@Z ENDP		; stbtt__buf_skip
_TEXT	ENDS
; Function compile flags: /Odtp
_TEXT	SEGMENT
tv76 = 32
b$ = 64
o$ = 72
?stbtt__buf_seek@@YAXPEAUstbtt__buf@@H@Z PROC		; stbtt__buf_seek
; File D:\TIME\code\stb_truetype.h
; Line 1148
	mov	DWORD PTR [rsp+16], edx
	mov	QWORD PTR [rsp+8], rcx
	sub	rsp, 56					; 00000038H
; Line 1149
	mov	rax, QWORD PTR b$[rsp]
	mov	eax, DWORD PTR [rax+12]
	cmp	DWORD PTR o$[rsp], eax
	jg	SHORT $LN3@stbtt__buf
	cmp	DWORD PTR o$[rsp], 0
	jge	SHORT $LN4@stbtt__buf
$LN3@stbtt__buf:
	mov	r8d, 1149				; 0000047dH
	lea	rdx, OFFSET FLAT:$SG54019
	lea	rcx, OFFSET FLAT:$SG54020
	call	QWORD PTR __imp__wassert
	xor	eax, eax
$LN4@stbtt__buf:
; Line 1150
	mov	rax, QWORD PTR b$[rsp]
	mov	eax, DWORD PTR [rax+12]
	cmp	DWORD PTR o$[rsp], eax
	jg	SHORT $LN5@stbtt__buf
	cmp	DWORD PTR o$[rsp], 0
	jl	SHORT $LN5@stbtt__buf
	mov	eax, DWORD PTR o$[rsp]
	mov	DWORD PTR tv76[rsp], eax
	jmp	SHORT $LN6@stbtt__buf
$LN5@stbtt__buf:
	mov	rax, QWORD PTR b$[rsp]
	mov	eax, DWORD PTR [rax+12]
	mov	DWORD PTR tv76[rsp], eax
$LN6@stbtt__buf:
	mov	rax, QWORD PTR b$[rsp]
	mov	ecx, DWORD PTR tv76[rsp]
	mov	DWORD PTR [rax+8], ecx
; Line 1151
	add	rsp, 56					; 00000038H
	ret	0
?stbtt__buf_seek@@YAXPEAUstbtt__buf@@H@Z ENDP		; stbtt__buf_seek
_TEXT	ENDS
; Function compile flags: /Odtp
_TEXT	SEGMENT
b$ = 8
?stbtt__buf_peek8@@YAEPEAUstbtt__buf@@@Z PROC		; stbtt__buf_peek8
; File D:\TIME\code\stb_truetype.h
; Line 1141
	mov	QWORD PTR [rsp+8], rcx
; Line 1142
	mov	rax, QWORD PTR b$[rsp]
	mov	rcx, QWORD PTR b$[rsp]
	mov	ecx, DWORD PTR [rcx+12]
	cmp	DWORD PTR [rax+8], ecx
	jl	SHORT $LN2@stbtt__buf
; Line 1143
	xor	al, al
	jmp	SHORT $LN1@stbtt__buf
$LN2@stbtt__buf:
; Line 1144
	mov	rax, QWORD PTR b$[rsp]
	movsxd	rax, DWORD PTR [rax+8]
	mov	rcx, QWORD PTR b$[rsp]
	mov	rcx, QWORD PTR [rcx]
	movzx	eax, BYTE PTR [rcx+rax]
$LN1@stbtt__buf:
; Line 1145
	ret	0
?stbtt__buf_peek8@@YAEPEAUstbtt__buf@@@Z ENDP		; stbtt__buf_peek8
_TEXT	ENDS
; Function compile flags: /Odtp
_TEXT	SEGMENT
tv75 = 0
b$ = 32
?stbtt__buf_get8@@YAEPEAUstbtt__buf@@@Z PROC		; stbtt__buf_get8
; File D:\TIME\code\stb_truetype.h
; Line 1134
	mov	QWORD PTR [rsp+8], rcx
	sub	rsp, 24
; Line 1135
	mov	rax, QWORD PTR b$[rsp]
	mov	rcx, QWORD PTR b$[rsp]
	mov	ecx, DWORD PTR [rcx+12]
	cmp	DWORD PTR [rax+8], ecx
	jl	SHORT $LN2@stbtt__buf
; Line 1136
	xor	al, al
	jmp	SHORT $LN1@stbtt__buf
$LN2@stbtt__buf:
; Line 1137
	mov	rax, QWORD PTR b$[rsp]
	movsxd	rax, DWORD PTR [rax+8]
	mov	rcx, QWORD PTR b$[rsp]
	mov	rcx, QWORD PTR [rcx]
	movzx	eax, BYTE PTR [rcx+rax]
	mov	BYTE PTR tv75[rsp], al
	mov	rax, QWORD PTR b$[rsp]
	mov	eax, DWORD PTR [rax+8]
	inc	eax
	mov	rcx, QWORD PTR b$[rsp]
	mov	DWORD PTR [rcx+8], eax
	movzx	eax, BYTE PTR tv75[rsp]
$LN1@stbtt__buf:
; Line 1138
	add	rsp, 24
	ret	0
?stbtt__buf_get8@@YAEPEAUstbtt__buf@@@Z ENDP		; stbtt__buf_get8
_TEXT	ENDS
; Function compile flags: /Odtp
_TEXT	SEGMENT
info$ = 48
data$ = 56
offset$ = 64
stbtt_InitFont PROC
; File D:\TIME\code\stb_truetype.h
; Line 4953
	mov	DWORD PTR [rsp+24], r8d
	mov	QWORD PTR [rsp+16], rdx
	mov	QWORD PTR [rsp+8], rcx
	sub	rsp, 40					; 00000028H
; Line 4954
	mov	r8d, DWORD PTR offset$[rsp]
	mov	rdx, QWORD PTR data$[rsp]
	mov	rcx, QWORD PTR info$[rsp]
	call	?stbtt_InitFont_internal@@YAHPEAUstbtt_fontinfo@@PEAEH@Z ; stbtt_InitFont_internal
; Line 4955
	add	rsp, 40					; 00000028H
	ret	0
stbtt_InitFont ENDP
_TEXT	ENDS
; Function compile flags: /Odtp
_TEXT	SEGMENT
tv70 = 0
tv71 = 4
p$ = 8
q$ = 16
a$ = 48
b$ = 56
?rect_original_order@@YAHPEBX0@Z PROC			; rect_original_order
; File D:\TIME\code\stb_rect_pack.h
; Line 539
	mov	QWORD PTR [rsp+16], rdx
	mov	QWORD PTR [rsp+8], rcx
	sub	rsp, 40					; 00000028H
; Line 540
	mov	rax, QWORD PTR a$[rsp]
	mov	QWORD PTR p$[rsp], rax
; Line 541
	mov	rax, QWORD PTR b$[rsp]
	mov	QWORD PTR q$[rsp], rax
; Line 542
	mov	rax, QWORD PTR p$[rsp]
	mov	rcx, QWORD PTR q$[rsp]
	mov	ecx, DWORD PTR [rcx+20]
	cmp	DWORD PTR [rax+20], ecx
	jge	SHORT $LN5@rect_origi
	mov	DWORD PTR tv71[rsp], -1
	jmp	SHORT $LN6@rect_origi
$LN5@rect_origi:
	mov	rax, QWORD PTR p$[rsp]
	mov	rcx, QWORD PTR q$[rsp]
	mov	ecx, DWORD PTR [rcx+20]
	cmp	DWORD PTR [rax+20], ecx
	jle	SHORT $LN3@rect_origi
	mov	DWORD PTR tv70[rsp], 1
	jmp	SHORT $LN4@rect_origi
$LN3@rect_origi:
	mov	DWORD PTR tv70[rsp], 0
$LN4@rect_origi:
	mov	eax, DWORD PTR tv70[rsp]
	mov	DWORD PTR tv71[rsp], eax
$LN6@rect_origi:
	mov	eax, DWORD PTR tv71[rsp]
; Line 543
	add	rsp, 40					; 00000028H
	ret	0
?rect_original_order@@YAHPEBX0@Z ENDP			; rect_original_order
_TEXT	ENDS
; Function compile flags: /Odtp
_TEXT	SEGMENT
tv76 = 0
tv77 = 4
p$ = 8
q$ = 16
a$ = 48
b$ = 56
?rect_height_compare@@YAHPEBX0@Z PROC			; rect_height_compare
; File D:\TIME\code\stb_rect_pack.h
; Line 528
	mov	QWORD PTR [rsp+16], rdx
	mov	QWORD PTR [rsp+8], rcx
	sub	rsp, 40					; 00000028H
; Line 529
	mov	rax, QWORD PTR a$[rsp]
	mov	QWORD PTR p$[rsp], rax
; Line 530
	mov	rax, QWORD PTR b$[rsp]
	mov	QWORD PTR q$[rsp], rax
; Line 531
	mov	rax, QWORD PTR p$[rsp]
	mov	rcx, QWORD PTR q$[rsp]
	mov	ecx, DWORD PTR [rcx+8]
	cmp	DWORD PTR [rax+8], ecx
	jle	SHORT $LN2@rect_heigh
; Line 532
	mov	eax, -1
	jmp	SHORT $LN1@rect_heigh
$LN2@rect_heigh:
; Line 533
	mov	rax, QWORD PTR p$[rsp]
	mov	rcx, QWORD PTR q$[rsp]
	mov	ecx, DWORD PTR [rcx+8]
	cmp	DWORD PTR [rax+8], ecx
	jge	SHORT $LN3@rect_heigh
; Line 534
	mov	eax, 1
	jmp	SHORT $LN1@rect_heigh
$LN3@rect_heigh:
; Line 535
	mov	rax, QWORD PTR p$[rsp]
	mov	rcx, QWORD PTR q$[rsp]
	mov	ecx, DWORD PTR [rcx+4]
	cmp	DWORD PTR [rax+4], ecx
	jle	SHORT $LN7@rect_heigh
	mov	DWORD PTR tv77[rsp], -1
	jmp	SHORT $LN8@rect_heigh
$LN7@rect_heigh:
	mov	rax, QWORD PTR p$[rsp]
	mov	rcx, QWORD PTR q$[rsp]
	mov	ecx, DWORD PTR [rcx+4]
	cmp	DWORD PTR [rax+4], ecx
	jge	SHORT $LN5@rect_heigh
	mov	DWORD PTR tv76[rsp], 1
	jmp	SHORT $LN6@rect_heigh
$LN5@rect_heigh:
	mov	DWORD PTR tv76[rsp], 0
$LN6@rect_heigh:
	mov	eax, DWORD PTR tv76[rsp]
	mov	DWORD PTR tv77[rsp], eax
$LN8@rect_heigh:
	mov	eax, DWORD PTR tv77[rsp]
$LN1@rect_heigh:
; Line 536
	add	rsp, 40					; 00000028H
	ret	0
?rect_height_compare@@YAHPEBX0@Z ENDP			; rect_height_compare
_TEXT	ENDS
; Function compile flags: /Odtp
_TEXT	SEGMENT
cur$ = 32
node$ = 40
next$1 = 48
next$2 = 56
res$ = 64
$T3 = 80
$T4 = 96
__$ReturnAddress$ = 144
context$ = 152
width$ = 160
height$ = 168
?stbrp__skyline_pack_rectangle@@YA?AUstbrp__findresult@@PEAUstbrp_context@@HH@Z PROC ; stbrp__skyline_pack_rectangle
; File D:\TIME\code\stb_rect_pack.h
; Line 448
	mov	DWORD PTR [rsp+32], r9d
	mov	DWORD PTR [rsp+24], r8d
	mov	QWORD PTR [rsp+16], rdx
	mov	QWORD PTR [rsp+8], rcx
	push	rsi
	push	rdi
	sub	rsp, 120				; 00000078H
; Line 450
	mov	r9d, DWORD PTR height$[rsp]
	mov	r8d, DWORD PTR width$[rsp]
	mov	rdx, QWORD PTR context$[rsp]
	lea	rcx, QWORD PTR $T4[rsp]
	call	?stbrp__skyline_find_best_pos@@YA?AUstbrp__findresult@@PEAUstbrp_context@@HH@Z ; stbrp__skyline_find_best_pos
	lea	rcx, QWORD PTR $T3[rsp]
	mov	rdi, rcx
	mov	rsi, rax
	mov	ecx, 16
	rep movsb
	lea	rax, QWORD PTR res$[rsp]
	lea	rcx, QWORD PTR $T3[rsp]
	mov	rdi, rax
	mov	rsi, rcx
	mov	ecx, 16
	rep movsb
; Line 457
	cmp	QWORD PTR res$[rsp+8], 0
	je	SHORT $LN5@stbrp__sky
	mov	eax, DWORD PTR height$[rsp]
	mov	ecx, DWORD PTR res$[rsp+4]
	add	ecx, eax
	mov	eax, ecx
	mov	rcx, QWORD PTR context$[rsp]
	cmp	eax, DWORD PTR [rcx+4]
	jg	SHORT $LN5@stbrp__sky
	mov	rax, QWORD PTR context$[rsp]
	cmp	QWORD PTR [rax+32], 0
	jne	SHORT $LN4@stbrp__sky
$LN5@stbrp__sky:
; Line 458
	mov	QWORD PTR res$[rsp+8], 0
; Line 459
	lea	rax, QWORD PTR res$[rsp]
	mov	rdi, QWORD PTR __$ReturnAddress$[rsp]
	mov	rsi, rax
	mov	ecx, 16
	rep movsb
	mov	rax, QWORD PTR __$ReturnAddress$[rsp]
	jmp	$LN1@stbrp__sky
$LN4@stbrp__sky:
; Line 463
	mov	rax, QWORD PTR context$[rsp]
	mov	rax, QWORD PTR [rax+32]
	mov	QWORD PTR node$[rsp], rax
; Line 464
	mov	rax, QWORD PTR node$[rsp]
	mov	ecx, DWORD PTR res$[rsp]
	mov	DWORD PTR [rax], ecx
; Line 465
	mov	eax, DWORD PTR height$[rsp]
	mov	ecx, DWORD PTR res$[rsp+4]
	add	ecx, eax
	mov	eax, ecx
	mov	rcx, QWORD PTR node$[rsp]
	mov	DWORD PTR [rcx+4], eax
; Line 467
	mov	rax, QWORD PTR context$[rsp]
	mov	rcx, QWORD PTR node$[rsp]
	mov	rcx, QWORD PTR [rcx+8]
	mov	QWORD PTR [rax+32], rcx
; Line 473
	mov	rax, QWORD PTR res$[rsp+8]
	mov	rax, QWORD PTR [rax]
	mov	QWORD PTR cur$[rsp], rax
; Line 474
	mov	rax, QWORD PTR cur$[rsp]
	mov	ecx, DWORD PTR res$[rsp]
	cmp	DWORD PTR [rax], ecx
	jge	SHORT $LN6@stbrp__sky
; Line 476
	mov	rax, QWORD PTR cur$[rsp]
	mov	rax, QWORD PTR [rax+8]
	mov	QWORD PTR next$1[rsp], rax
; Line 477
	mov	rax, QWORD PTR cur$[rsp]
	mov	rcx, QWORD PTR node$[rsp]
	mov	QWORD PTR [rax+8], rcx
; Line 478
	mov	rax, QWORD PTR next$1[rsp]
	mov	QWORD PTR cur$[rsp], rax
; Line 479
	jmp	SHORT $LN7@stbrp__sky
$LN6@stbrp__sky:
; Line 481
	mov	rax, QWORD PTR res$[rsp+8]
	mov	rcx, QWORD PTR node$[rsp]
	mov	QWORD PTR [rax], rcx
$LN7@stbrp__sky:
$LN2@stbrp__sky:
; Line 486
	mov	rax, QWORD PTR cur$[rsp]
	cmp	QWORD PTR [rax+8], 0
	je	SHORT $LN3@stbrp__sky
	mov	rax, QWORD PTR cur$[rsp]
	mov	rax, QWORD PTR [rax+8]
	mov	ecx, DWORD PTR width$[rsp]
	mov	edx, DWORD PTR res$[rsp]
	add	edx, ecx
	mov	ecx, edx
	cmp	DWORD PTR [rax], ecx
	jg	SHORT $LN3@stbrp__sky
; Line 487
	mov	rax, QWORD PTR cur$[rsp]
	mov	rax, QWORD PTR [rax+8]
	mov	QWORD PTR next$2[rsp], rax
; Line 489
	mov	rax, QWORD PTR cur$[rsp]
	mov	rcx, QWORD PTR context$[rsp]
	mov	rcx, QWORD PTR [rcx+32]
	mov	QWORD PTR [rax+8], rcx
; Line 490
	mov	rax, QWORD PTR context$[rsp]
	mov	rcx, QWORD PTR cur$[rsp]
	mov	QWORD PTR [rax+32], rcx
; Line 491
	mov	rax, QWORD PTR next$2[rsp]
	mov	QWORD PTR cur$[rsp], rax
; Line 492
	jmp	SHORT $LN2@stbrp__sky
$LN3@stbrp__sky:
; Line 495
	mov	rax, QWORD PTR node$[rsp]
	mov	rcx, QWORD PTR cur$[rsp]
	mov	QWORD PTR [rax+8], rcx
; Line 497
	mov	eax, DWORD PTR width$[rsp]
	mov	ecx, DWORD PTR res$[rsp]
	add	ecx, eax
	mov	eax, ecx
	mov	rcx, QWORD PTR cur$[rsp]
	cmp	DWORD PTR [rcx], eax
	jge	SHORT $LN8@stbrp__sky
; Line 498
	mov	eax, DWORD PTR width$[rsp]
	mov	ecx, DWORD PTR res$[rsp]
	add	ecx, eax
	mov	eax, ecx
	mov	rcx, QWORD PTR cur$[rsp]
	mov	DWORD PTR [rcx], eax
$LN8@stbrp__sky:
; Line 524
	lea	rax, QWORD PTR res$[rsp]
	mov	rdi, QWORD PTR __$ReturnAddress$[rsp]
	mov	rsi, rax
	mov	ecx, 16
	rep movsb
	mov	rax, QWORD PTR __$ReturnAddress$[rsp]
$LN1@stbrp__sky:
; Line 525
	add	rsp, 120				; 00000078H
	pop	rdi
	pop	rsi
	ret	0
?stbrp__skyline_pack_rectangle@@YA?AUstbrp__findresult@@PEAUstbrp_context@@HH@Z ENDP ; stbrp__skyline_pack_rectangle
_TEXT	ENDS
; Function compile flags: /Odtp
_TEXT	SEGMENT
best_y$ = 48
xpos$1 = 52
node$ = 56
y$2 = 64
y$3 = 68
best_waste$ = 72
waste$4 = 76
best_x$ = 80
tail$ = 88
prev$ = 96
best$ = 104
waste$5 = 112
tv139 = 116
fr$ = 120
__$ReturnAddress$ = 176
c$ = 184
width$ = 192
height$ = 200
?stbrp__skyline_find_best_pos@@YA?AUstbrp__findresult@@PEAUstbrp_context@@HH@Z PROC ; stbrp__skyline_find_best_pos
; File D:\TIME\code\stb_rect_pack.h
; Line 345
	mov	DWORD PTR [rsp+32], r9d
	mov	DWORD PTR [rsp+24], r8d
	mov	QWORD PTR [rsp+16], rdx
	mov	QWORD PTR [rsp+8], rcx
	push	rsi
	push	rdi
	sub	rsp, 152				; 00000098H
; Line 346
	mov	DWORD PTR best_waste$[rsp], 1073741824	; 40000000H
	mov	DWORD PTR best_y$[rsp], 1073741824	; 40000000H
; Line 348
	mov	QWORD PTR best$[rsp], 0
; Line 351
	mov	rax, QWORD PTR c$[rsp]
	mov	eax, DWORD PTR [rax+8]
	mov	ecx, DWORD PTR width$[rsp]
	lea	eax, DWORD PTR [rcx+rax-1]
	mov	DWORD PTR width$[rsp], eax
; Line 352
	mov	eax, DWORD PTR width$[rsp]
	cdq
	mov	rcx, QWORD PTR c$[rsp]
	idiv	DWORD PTR [rcx+8]
	mov	eax, edx
	mov	ecx, DWORD PTR width$[rsp]
	sub	ecx, eax
	mov	eax, ecx
	mov	DWORD PTR width$[rsp], eax
; Line 353
	mov	eax, DWORD PTR width$[rsp]
	cdq
	mov	rcx, QWORD PTR c$[rsp]
	idiv	DWORD PTR [rcx+8]
	mov	eax, edx
	test	eax, eax
	je	SHORT $LN24@stbrp__sky
	mov	r8d, 353				; 00000161H
	lea	rdx, OFFSET FLAT:$SG52322
	lea	rcx, OFFSET FLAT:$SG52323
	call	QWORD PTR __imp__wassert
	xor	eax, eax
$LN24@stbrp__sky:
; Line 356
	mov	rax, QWORD PTR c$[rsp]
	mov	eax, DWORD PTR [rax]
	cmp	DWORD PTR width$[rsp], eax
	jg	SHORT $LN11@stbrp__sky
	mov	rax, QWORD PTR c$[rsp]
	mov	eax, DWORD PTR [rax+4]
	cmp	DWORD PTR height$[rsp], eax
	jle	SHORT $LN10@stbrp__sky
$LN11@stbrp__sky:
; Line 357
	mov	QWORD PTR fr$[rsp+8], 0
; Line 358
	mov	DWORD PTR fr$[rsp+4], 0
	mov	eax, DWORD PTR fr$[rsp+4]
	mov	DWORD PTR fr$[rsp], eax
; Line 359
	lea	rax, QWORD PTR fr$[rsp]
	mov	rdi, QWORD PTR __$ReturnAddress$[rsp]
	mov	rsi, rax
	mov	ecx, 16
	rep movsb
	mov	rax, QWORD PTR __$ReturnAddress$[rsp]
	jmp	$LN1@stbrp__sky
$LN10@stbrp__sky:
; Line 362
	mov	rax, QWORD PTR c$[rsp]
	mov	rax, QWORD PTR [rax+24]
	mov	QWORD PTR node$[rsp], rax
; Line 363
	mov	rax, QWORD PTR c$[rsp]
	add	rax, 24
	mov	QWORD PTR prev$[rsp], rax
$LN2@stbrp__sky:
; Line 364
	mov	rax, QWORD PTR node$[rsp]
	mov	eax, DWORD PTR [rax]
	add	eax, DWORD PTR width$[rsp]
	mov	rcx, QWORD PTR c$[rsp]
	cmp	eax, DWORD PTR [rcx]
	jg	$LN3@stbrp__sky
; Line 366
	lea	rax, QWORD PTR waste$5[rsp]
	mov	QWORD PTR [rsp+32], rax
	mov	r9d, DWORD PTR width$[rsp]
	mov	rax, QWORD PTR node$[rsp]
	mov	r8d, DWORD PTR [rax]
	mov	rdx, QWORD PTR node$[rsp]
	mov	rcx, QWORD PTR c$[rsp]
	call	?stbrp__skyline_find_min_y@@YAHPEAUstbrp_context@@PEAUstbrp_node@@HHPEAH@Z ; stbrp__skyline_find_min_y
	mov	DWORD PTR y$2[rsp], eax
; Line 367
	mov	rax, QWORD PTR c$[rsp]
	cmp	DWORD PTR [rax+16], 0
	jne	SHORT $LN12@stbrp__sky
; Line 369
	mov	eax, DWORD PTR best_y$[rsp]
	cmp	DWORD PTR y$2[rsp], eax
	jge	SHORT $LN14@stbrp__sky
; Line 370
	mov	eax, DWORD PTR y$2[rsp]
	mov	DWORD PTR best_y$[rsp], eax
; Line 371
	mov	rax, QWORD PTR prev$[rsp]
	mov	QWORD PTR best$[rsp], rax
$LN14@stbrp__sky:
; Line 373
	jmp	SHORT $LN13@stbrp__sky
$LN12@stbrp__sky:
; Line 376
	mov	eax, DWORD PTR height$[rsp]
	mov	ecx, DWORD PTR y$2[rsp]
	add	ecx, eax
	mov	eax, ecx
	mov	rcx, QWORD PTR c$[rsp]
	cmp	eax, DWORD PTR [rcx+4]
	jg	SHORT $LN15@stbrp__sky
; Line 378
	mov	eax, DWORD PTR best_y$[rsp]
	cmp	DWORD PTR y$2[rsp], eax
	jl	SHORT $LN17@stbrp__sky
	mov	eax, DWORD PTR best_y$[rsp]
	cmp	DWORD PTR y$2[rsp], eax
	jne	SHORT $LN16@stbrp__sky
	mov	eax, DWORD PTR best_waste$[rsp]
	cmp	DWORD PTR waste$5[rsp], eax
	jge	SHORT $LN16@stbrp__sky
$LN17@stbrp__sky:
; Line 379
	mov	eax, DWORD PTR y$2[rsp]
	mov	DWORD PTR best_y$[rsp], eax
; Line 380
	mov	eax, DWORD PTR waste$5[rsp]
	mov	DWORD PTR best_waste$[rsp], eax
; Line 381
	mov	rax, QWORD PTR prev$[rsp]
	mov	QWORD PTR best$[rsp], rax
$LN16@stbrp__sky:
$LN15@stbrp__sky:
$LN13@stbrp__sky:
; Line 385
	mov	rax, QWORD PTR node$[rsp]
	add	rax, 8
	mov	QWORD PTR prev$[rsp], rax
; Line 386
	mov	rax, QWORD PTR node$[rsp]
	mov	rax, QWORD PTR [rax+8]
	mov	QWORD PTR node$[rsp], rax
; Line 387
	jmp	$LN2@stbrp__sky
$LN3@stbrp__sky:
; Line 389
	cmp	QWORD PTR best$[rsp], 0
	jne	SHORT $LN25@stbrp__sky
	mov	DWORD PTR tv139[rsp], 0
	jmp	SHORT $LN26@stbrp__sky
$LN25@stbrp__sky:
	mov	rax, QWORD PTR best$[rsp]
	mov	rax, QWORD PTR [rax]
	mov	eax, DWORD PTR [rax]
	mov	DWORD PTR tv139[rsp], eax
$LN26@stbrp__sky:
	mov	eax, DWORD PTR tv139[rsp]
	mov	DWORD PTR best_x$[rsp], eax
; Line 408
	mov	rax, QWORD PTR c$[rsp]
	cmp	DWORD PTR [rax+16], 1
	jne	$LN18@stbrp__sky
; Line 409
	mov	rax, QWORD PTR c$[rsp]
	mov	rax, QWORD PTR [rax+24]
	mov	QWORD PTR tail$[rsp], rax
; Line 410
	mov	rax, QWORD PTR c$[rsp]
	mov	rax, QWORD PTR [rax+24]
	mov	QWORD PTR node$[rsp], rax
; Line 411
	mov	rax, QWORD PTR c$[rsp]
	add	rax, 24
	mov	QWORD PTR prev$[rsp], rax
$LN4@stbrp__sky:
; Line 413
	mov	rax, QWORD PTR tail$[rsp]
	mov	ecx, DWORD PTR width$[rsp]
	cmp	DWORD PTR [rax], ecx
	jge	SHORT $LN5@stbrp__sky
; Line 414
	mov	rax, QWORD PTR tail$[rsp]
	mov	rax, QWORD PTR [rax+8]
	mov	QWORD PTR tail$[rsp], rax
	jmp	SHORT $LN4@stbrp__sky
$LN5@stbrp__sky:
$LN6@stbrp__sky:
; Line 415
	cmp	QWORD PTR tail$[rsp], 0
	je	$LN7@stbrp__sky
; Line 416
	mov	rax, QWORD PTR tail$[rsp]
	mov	ecx, DWORD PTR width$[rsp]
	mov	eax, DWORD PTR [rax]
	sub	eax, ecx
	mov	DWORD PTR xpos$1[rsp], eax
; Line 418
	cmp	DWORD PTR xpos$1[rsp], 0
	jge	SHORT $LN27@stbrp__sky
	mov	r8d, 418				; 000001a2H
	lea	rdx, OFFSET FLAT:$SG52333
	lea	rcx, OFFSET FLAT:$SG52334
	call	QWORD PTR __imp__wassert
	xor	eax, eax
$LN27@stbrp__sky:
$LN8@stbrp__sky:
; Line 420
	mov	rax, QWORD PTR node$[rsp]
	mov	rax, QWORD PTR [rax+8]
	mov	ecx, DWORD PTR xpos$1[rsp]
	cmp	DWORD PTR [rax], ecx
	jg	SHORT $LN9@stbrp__sky
; Line 421
	mov	rax, QWORD PTR node$[rsp]
	add	rax, 8
	mov	QWORD PTR prev$[rsp], rax
; Line 422
	mov	rax, QWORD PTR node$[rsp]
	mov	rax, QWORD PTR [rax+8]
	mov	QWORD PTR node$[rsp], rax
; Line 423
	jmp	SHORT $LN8@stbrp__sky
$LN9@stbrp__sky:
; Line 424
	mov	rax, QWORD PTR node$[rsp]
	mov	rax, QWORD PTR [rax+8]
	mov	ecx, DWORD PTR xpos$1[rsp]
	cmp	DWORD PTR [rax], ecx
	jle	SHORT $LN28@stbrp__sky
	mov	rax, QWORD PTR node$[rsp]
	mov	ecx, DWORD PTR xpos$1[rsp]
	cmp	DWORD PTR [rax], ecx
	jle	SHORT $LN29@stbrp__sky
$LN28@stbrp__sky:
	mov	r8d, 424				; 000001a8H
	lea	rdx, OFFSET FLAT:$SG52335
	lea	rcx, OFFSET FLAT:$SG52336
	call	QWORD PTR __imp__wassert
	xor	eax, eax
$LN29@stbrp__sky:
; Line 425
	lea	rax, QWORD PTR waste$4[rsp]
	mov	QWORD PTR [rsp+32], rax
	mov	r9d, DWORD PTR width$[rsp]
	mov	r8d, DWORD PTR xpos$1[rsp]
	mov	rdx, QWORD PTR node$[rsp]
	mov	rcx, QWORD PTR c$[rsp]
	call	?stbrp__skyline_find_min_y@@YAHPEAUstbrp_context@@PEAUstbrp_node@@HHPEAH@Z ; stbrp__skyline_find_min_y
	mov	DWORD PTR y$3[rsp], eax
; Line 426
	mov	eax, DWORD PTR height$[rsp]
	mov	ecx, DWORD PTR y$3[rsp]
	add	ecx, eax
	mov	eax, ecx
	mov	rcx, QWORD PTR c$[rsp]
	cmp	eax, DWORD PTR [rcx+4]
	jg	SHORT $LN19@stbrp__sky
; Line 427
	mov	eax, DWORD PTR best_y$[rsp]
	cmp	DWORD PTR y$3[rsp], eax
	jg	SHORT $LN20@stbrp__sky
; Line 428
	mov	eax, DWORD PTR best_y$[rsp]
	cmp	DWORD PTR y$3[rsp], eax
	jl	SHORT $LN22@stbrp__sky
	mov	eax, DWORD PTR best_waste$[rsp]
	cmp	DWORD PTR waste$4[rsp], eax
	jl	SHORT $LN22@stbrp__sky
	mov	eax, DWORD PTR best_waste$[rsp]
	cmp	DWORD PTR waste$4[rsp], eax
	jne	SHORT $LN21@stbrp__sky
	mov	eax, DWORD PTR best_x$[rsp]
	cmp	DWORD PTR xpos$1[rsp], eax
	jge	SHORT $LN21@stbrp__sky
$LN22@stbrp__sky:
; Line 429
	mov	eax, DWORD PTR xpos$1[rsp]
	mov	DWORD PTR best_x$[rsp], eax
; Line 430
	mov	eax, DWORD PTR best_y$[rsp]
	cmp	DWORD PTR y$3[rsp], eax
	jle	SHORT $LN30@stbrp__sky
	mov	r8d, 430				; 000001aeH
	lea	rdx, OFFSET FLAT:$SG52341
	lea	rcx, OFFSET FLAT:$SG52342
	call	QWORD PTR __imp__wassert
	xor	eax, eax
$LN30@stbrp__sky:
; Line 431
	mov	eax, DWORD PTR y$3[rsp]
	mov	DWORD PTR best_y$[rsp], eax
; Line 432
	mov	eax, DWORD PTR waste$4[rsp]
	mov	DWORD PTR best_waste$[rsp], eax
; Line 433
	mov	rax, QWORD PTR prev$[rsp]
	mov	QWORD PTR best$[rsp], rax
$LN21@stbrp__sky:
$LN20@stbrp__sky:
$LN19@stbrp__sky:
; Line 437
	mov	rax, QWORD PTR tail$[rsp]
	mov	rax, QWORD PTR [rax+8]
	mov	QWORD PTR tail$[rsp], rax
; Line 438
	jmp	$LN6@stbrp__sky
$LN7@stbrp__sky:
$LN18@stbrp__sky:
; Line 441
	mov	rax, QWORD PTR best$[rsp]
	mov	QWORD PTR fr$[rsp+8], rax
; Line 442
	mov	eax, DWORD PTR best_x$[rsp]
	mov	DWORD PTR fr$[rsp], eax
; Line 443
	mov	eax, DWORD PTR best_y$[rsp]
	mov	DWORD PTR fr$[rsp+4], eax
; Line 444
	lea	rax, QWORD PTR fr$[rsp]
	mov	rdi, QWORD PTR __$ReturnAddress$[rsp]
	mov	rsi, rax
	mov	ecx, 16
	rep movsb
	mov	rax, QWORD PTR __$ReturnAddress$[rsp]
$LN1@stbrp__sky:
; Line 445
	add	rsp, 152				; 00000098H
	pop	rdi
	pop	rsi
	ret	0
?stbrp__skyline_find_best_pos@@YA?AUstbrp__findresult@@PEAUstbrp_context@@HH@Z ENDP ; stbrp__skyline_find_best_pos
_TEXT	ENDS
; Function compile flags: /Odtp
_TEXT	SEGMENT
visited_width$ = 32
waste_area$ = 36
min_y$ = 40
under_width$1 = 44
x1$ = 48
node$ = 56
c$ = 80
first$ = 88
x0$ = 96
width$ = 104
pwaste$ = 112
?stbrp__skyline_find_min_y@@YAHPEAUstbrp_context@@PEAUstbrp_node@@HHPEAH@Z PROC ; stbrp__skyline_find_min_y
; File D:\TIME\code\stb_rect_pack.h
; Line 288
	mov	DWORD PTR [rsp+32], r9d
	mov	DWORD PTR [rsp+24], r8d
	mov	QWORD PTR [rsp+16], rdx
	mov	QWORD PTR [rsp+8], rcx
	sub	rsp, 72					; 00000048H
; Line 289
	mov	rax, QWORD PTR first$[rsp]
	mov	QWORD PTR node$[rsp], rax
; Line 290
	mov	eax, DWORD PTR width$[rsp]
	mov	ecx, DWORD PTR x0$[rsp]
	add	ecx, eax
	mov	eax, ecx
	mov	DWORD PTR x1$[rsp], eax
; Line 295
	mov	rax, QWORD PTR first$[rsp]
	mov	ecx, DWORD PTR x0$[rsp]
	cmp	DWORD PTR [rax], ecx
	jle	SHORT $LN10@stbrp__sky
	mov	r8d, 295				; 00000127H
	lea	rdx, OFFSET FLAT:$SG52262
	lea	rcx, OFFSET FLAT:$SG52263
	call	QWORD PTR __imp__wassert
	xor	eax, eax
$LN10@stbrp__sky:
; Line 302
	mov	rax, QWORD PTR node$[rsp]
	mov	rax, QWORD PTR [rax+8]
	mov	ecx, DWORD PTR x0$[rsp]
	cmp	DWORD PTR [rax], ecx
	jg	SHORT $LN11@stbrp__sky
	mov	r8d, 302				; 0000012eH
	lea	rdx, OFFSET FLAT:$SG52264
	lea	rcx, OFFSET FLAT:$SG52265
	call	QWORD PTR __imp__wassert
	xor	eax, eax
$LN11@stbrp__sky:
; Line 305
	mov	rax, QWORD PTR node$[rsp]
	mov	ecx, DWORD PTR x0$[rsp]
	cmp	DWORD PTR [rax], ecx
	jle	SHORT $LN12@stbrp__sky
	mov	r8d, 305				; 00000131H
	lea	rdx, OFFSET FLAT:$SG52266
	lea	rcx, OFFSET FLAT:$SG52267
	call	QWORD PTR __imp__wassert
	xor	eax, eax
$LN12@stbrp__sky:
; Line 307
	mov	DWORD PTR min_y$[rsp], 0
; Line 308
	mov	DWORD PTR waste_area$[rsp], 0
; Line 309
	mov	DWORD PTR visited_width$[rsp], 0
$LN2@stbrp__sky:
; Line 310
	mov	rax, QWORD PTR node$[rsp]
	mov	ecx, DWORD PTR x1$[rsp]
	cmp	DWORD PTR [rax], ecx
	jge	$LN3@stbrp__sky
; Line 311
	mov	rax, QWORD PTR node$[rsp]
	mov	ecx, DWORD PTR min_y$[rsp]
	cmp	DWORD PTR [rax+4], ecx
	jle	SHORT $LN4@stbrp__sky
; Line 315
	mov	rax, QWORD PTR node$[rsp]
	mov	ecx, DWORD PTR min_y$[rsp]
	mov	eax, DWORD PTR [rax+4]
	sub	eax, ecx
	mov	ecx, DWORD PTR visited_width$[rsp]
	imul	ecx, eax
	mov	eax, ecx
	mov	ecx, DWORD PTR waste_area$[rsp]
	add	ecx, eax
	mov	eax, ecx
	mov	DWORD PTR waste_area$[rsp], eax
; Line 316
	mov	rax, QWORD PTR node$[rsp]
	mov	eax, DWORD PTR [rax+4]
	mov	DWORD PTR min_y$[rsp], eax
; Line 318
	mov	rax, QWORD PTR node$[rsp]
	mov	ecx, DWORD PTR x0$[rsp]
	cmp	DWORD PTR [rax], ecx
	jge	SHORT $LN6@stbrp__sky
; Line 319
	mov	rax, QWORD PTR node$[rsp]
	mov	rax, QWORD PTR [rax+8]
	mov	ecx, DWORD PTR x0$[rsp]
	mov	eax, DWORD PTR [rax]
	sub	eax, ecx
	mov	ecx, DWORD PTR visited_width$[rsp]
	add	ecx, eax
	mov	eax, ecx
	mov	DWORD PTR visited_width$[rsp], eax
	jmp	SHORT $LN7@stbrp__sky
$LN6@stbrp__sky:
; Line 321
	mov	rax, QWORD PTR node$[rsp]
	mov	rax, QWORD PTR [rax+8]
	mov	rcx, QWORD PTR node$[rsp]
	mov	ecx, DWORD PTR [rcx]
	mov	eax, DWORD PTR [rax]
	sub	eax, ecx
	mov	ecx, DWORD PTR visited_width$[rsp]
	add	ecx, eax
	mov	eax, ecx
	mov	DWORD PTR visited_width$[rsp], eax
$LN7@stbrp__sky:
; Line 322
	jmp	SHORT $LN5@stbrp__sky
$LN4@stbrp__sky:
; Line 325
	mov	rax, QWORD PTR node$[rsp]
	mov	rax, QWORD PTR [rax+8]
	mov	rcx, QWORD PTR node$[rsp]
	mov	ecx, DWORD PTR [rcx]
	mov	eax, DWORD PTR [rax]
	sub	eax, ecx
	mov	DWORD PTR under_width$1[rsp], eax
; Line 326
	mov	eax, DWORD PTR visited_width$[rsp]
	mov	ecx, DWORD PTR under_width$1[rsp]
	add	ecx, eax
	mov	eax, ecx
	cmp	eax, DWORD PTR width$[rsp]
	jle	SHORT $LN8@stbrp__sky
; Line 327
	mov	eax, DWORD PTR visited_width$[rsp]
	mov	ecx, DWORD PTR width$[rsp]
	sub	ecx, eax
	mov	eax, ecx
	mov	DWORD PTR under_width$1[rsp], eax
$LN8@stbrp__sky:
; Line 328
	mov	rax, QWORD PTR node$[rsp]
	mov	eax, DWORD PTR [rax+4]
	mov	ecx, DWORD PTR min_y$[rsp]
	sub	ecx, eax
	mov	eax, ecx
	mov	ecx, DWORD PTR under_width$1[rsp]
	imul	ecx, eax
	mov	eax, ecx
	mov	ecx, DWORD PTR waste_area$[rsp]
	add	ecx, eax
	mov	eax, ecx
	mov	DWORD PTR waste_area$[rsp], eax
; Line 329
	mov	eax, DWORD PTR under_width$1[rsp]
	mov	ecx, DWORD PTR visited_width$[rsp]
	add	ecx, eax
	mov	eax, ecx
	mov	DWORD PTR visited_width$[rsp], eax
$LN5@stbrp__sky:
; Line 331
	mov	rax, QWORD PTR node$[rsp]
	mov	rax, QWORD PTR [rax+8]
	mov	QWORD PTR node$[rsp], rax
; Line 332
	jmp	$LN2@stbrp__sky
$LN3@stbrp__sky:
; Line 334
	mov	rax, QWORD PTR pwaste$[rsp]
	mov	ecx, DWORD PTR waste_area$[rsp]
	mov	DWORD PTR [rax], ecx
; Line 335
	mov	eax, DWORD PTR min_y$[rsp]
; Line 336
	add	rsp, 72					; 00000048H
	ret	0
?stbrp__skyline_find_min_y@@YAHPEAUstbrp_context@@PEAUstbrp_node@@HHPEAH@Z ENDP ; stbrp__skyline_find_min_y
_TEXT	ENDS
; Function compile flags: /Odtp
_TEXT	SEGMENT
tv65 = 32
context$ = 64
heuristic$ = 72
stbrp_setup_heuristic PROC
; File D:\TIME\code\stb_rect_pack.h
; Line 230
$LN9:
	mov	DWORD PTR [rsp+16], edx
	mov	QWORD PTR [rsp+8], rcx
	sub	rsp, 56					; 00000038H
; Line 231
	mov	rax, QWORD PTR context$[rsp]
	mov	eax, DWORD PTR [rax+12]
	mov	DWORD PTR tv65[rsp], eax
	cmp	DWORD PTR tv65[rsp], 1
	je	SHORT $LN4@stbrp_setu
	jmp	SHORT $LN5@stbrp_setu
$LN4@stbrp_setu:
; Line 233
	cmp	DWORD PTR heuristic$[rsp], 0
	je	SHORT $LN7@stbrp_setu
	cmp	DWORD PTR heuristic$[rsp], 1
	je	SHORT $LN7@stbrp_setu
	mov	r8d, 233				; 000000e9H
	lea	rdx, OFFSET FLAT:$SG52217
	lea	rcx, OFFSET FLAT:$SG52218
	call	QWORD PTR __imp__wassert
	xor	eax, eax
$LN7@stbrp_setu:
; Line 234
	mov	rax, QWORD PTR context$[rsp]
	mov	ecx, DWORD PTR heuristic$[rsp]
	mov	DWORD PTR [rax+16], ecx
; Line 235
	jmp	SHORT $LN2@stbrp_setu
$LN5@stbrp_setu:
; Line 237
	xor	eax, eax
	test	eax, eax
	jne	SHORT $LN8@stbrp_setu
	mov	r8d, 237				; 000000edH
	lea	rdx, OFFSET FLAT:$SG52220
	lea	rcx, OFFSET FLAT:$SG52221
	call	QWORD PTR __imp__wassert
	xor	eax, eax
$LN8@stbrp_setu:
$LN2@stbrp_setu:
; Line 239
	add	rsp, 56					; 00000038H
	ret	0
stbrp_setup_heuristic ENDP
_TEXT	ENDS
; Function compile flags: /Odtp
_TEXT	SEGMENT
context$ = 8
allow_out_of_mem$ = 16
stbrp_setup_allow_out_of_mem PROC
; File D:\TIME\code\stb_rect_pack.h
; Line 242
	mov	DWORD PTR [rsp+16], edx
	mov	QWORD PTR [rsp+8], rcx
; Line 243
	cmp	DWORD PTR allow_out_of_mem$[rsp], 0
	je	SHORT $LN2@stbrp_setu
; Line 248
	mov	rax, QWORD PTR context$[rsp]
	mov	DWORD PTR [rax+8], 1
	jmp	SHORT $LN3@stbrp_setu
$LN2@stbrp_setu:
; Line 257
	mov	rax, QWORD PTR context$[rsp]
	mov	eax, DWORD PTR [rax]
	mov	rcx, QWORD PTR context$[rsp]
	mov	ecx, DWORD PTR [rcx+20]
	lea	eax, DWORD PTR [rax+rcx-1]
	cdq
	mov	rcx, QWORD PTR context$[rsp]
	idiv	DWORD PTR [rcx+20]
	mov	rcx, QWORD PTR context$[rsp]
	mov	DWORD PTR [rcx+8], eax
$LN3@stbrp_setu:
; Line 259
	ret	0
stbrp_setup_allow_out_of_mem ENDP
_TEXT	ENDS
; Function compile flags: /Odtp
_TEXT	SEGMENT
i$ = 32
context$ = 64
width$ = 72
height$ = 80
nodes$ = 88
num_nodes$ = 96
stbrp_init_target PROC
; File D:\TIME\code\stb_rect_pack.h
; Line 262
$LN6:
	mov	QWORD PTR [rsp+32], r9
	mov	DWORD PTR [rsp+24], r8d
	mov	DWORD PTR [rsp+16], edx
	mov	QWORD PTR [rsp+8], rcx
	sub	rsp, 56					; 00000038H
; Line 265
	mov	DWORD PTR i$[rsp], 0
	jmp	SHORT $LN4@stbrp_init
$LN2@stbrp_init:
	mov	eax, DWORD PTR i$[rsp]
	inc	eax
	mov	DWORD PTR i$[rsp], eax
$LN4@stbrp_init:
	mov	eax, DWORD PTR num_nodes$[rsp]
	dec	eax
	cmp	DWORD PTR i$[rsp], eax
	jge	SHORT $LN3@stbrp_init
; Line 266
	mov	eax, DWORD PTR i$[rsp]
	inc	eax
	cdqe
	imul	rax, rax, 16
	mov	rcx, QWORD PTR nodes$[rsp]
	add	rcx, rax
	mov	rax, rcx
	movsxd	rcx, DWORD PTR i$[rsp]
	imul	rcx, rcx, 16
	mov	rdx, QWORD PTR nodes$[rsp]
	mov	QWORD PTR [rdx+rcx+8], rax
	jmp	SHORT $LN2@stbrp_init
$LN3@stbrp_init:
; Line 267
	movsxd	rax, DWORD PTR i$[rsp]
	imul	rax, rax, 16
	mov	rcx, QWORD PTR nodes$[rsp]
	mov	QWORD PTR [rcx+rax+8], 0
; Line 268
	mov	rax, QWORD PTR context$[rsp]
	mov	DWORD PTR [rax+12], 1
; Line 269
	mov	rax, QWORD PTR context$[rsp]
	mov	DWORD PTR [rax+16], 0
; Line 270
	mov	eax, 16
	imul	rax, rax, 0
	mov	rcx, QWORD PTR nodes$[rsp]
	add	rcx, rax
	mov	rax, rcx
	mov	rcx, QWORD PTR context$[rsp]
	mov	QWORD PTR [rcx+32], rax
; Line 271
	mov	eax, 16
	imul	rax, rax, 0
	mov	rcx, QWORD PTR context$[rsp]
	lea	rax, QWORD PTR [rcx+rax+40]
	mov	rcx, QWORD PTR context$[rsp]
	mov	QWORD PTR [rcx+24], rax
; Line 272
	mov	rax, QWORD PTR context$[rsp]
	mov	ecx, DWORD PTR width$[rsp]
	mov	DWORD PTR [rax], ecx
; Line 273
	mov	rax, QWORD PTR context$[rsp]
	mov	ecx, DWORD PTR height$[rsp]
	mov	DWORD PTR [rax+4], ecx
; Line 274
	mov	rax, QWORD PTR context$[rsp]
	mov	ecx, DWORD PTR num_nodes$[rsp]
	mov	DWORD PTR [rax+20], ecx
; Line 275
	xor	edx, edx
	mov	rcx, QWORD PTR context$[rsp]
	call	stbrp_setup_allow_out_of_mem
; Line 278
	mov	eax, 16
	imul	rax, rax, 0
	mov	rcx, QWORD PTR context$[rsp]
	mov	DWORD PTR [rcx+rax+40], 0
; Line 279
	mov	eax, 16
	imul	rax, rax, 0
	mov	rcx, QWORD PTR context$[rsp]
	mov	DWORD PTR [rcx+rax+44], 0
; Line 280
	mov	eax, 16
	imul	rax, rax, 1
	mov	rcx, QWORD PTR context$[rsp]
	lea	rax, QWORD PTR [rcx+rax+40]
	mov	ecx, 16
	imul	rcx, rcx, 0
	mov	rdx, QWORD PTR context$[rsp]
	mov	QWORD PTR [rdx+rcx+48], rax
; Line 281
	mov	eax, 16
	imul	rax, rax, 1
	mov	rcx, QWORD PTR context$[rsp]
	mov	edx, DWORD PTR width$[rsp]
	mov	DWORD PTR [rcx+rax+40], edx
; Line 282
	mov	eax, 16
	imul	rax, rax, 1
	mov	rcx, QWORD PTR context$[rsp]
	mov	DWORD PTR [rcx+rax+44], 1073741824	; 40000000H
; Line 283
	mov	eax, 16
	imul	rax, rax, 1
	mov	rcx, QWORD PTR context$[rsp]
	mov	QWORD PTR [rcx+rax+48], 0
; Line 284
	add	rsp, 56					; 00000038H
	ret	0
stbrp_init_target ENDP
_TEXT	ENDS
; Function compile flags: /Odtp
_TEXT	SEGMENT
i$ = 32
tv179 = 36
all_rects_packed$ = 40
fr$1 = 48
$T2 = 64
$T3 = 80
context$ = 128
rects$ = 136
num_rects$ = 144
stbrp_pack_rects PROC
; File D:\TIME\code\stb_rect_pack.h
; Line 546
$LN20:
	mov	DWORD PTR [rsp+24], r8d
	mov	QWORD PTR [rsp+16], rdx
	mov	QWORD PTR [rsp+8], rcx
	push	rsi
	push	rdi
	sub	rsp, 104				; 00000068H
; Line 547
	mov	DWORD PTR all_rects_packed$[rsp], 1
; Line 550
	mov	DWORD PTR i$[rsp], 0
	jmp	SHORT $LN4@stbrp_pack
$LN2@stbrp_pack:
	mov	eax, DWORD PTR i$[rsp]
	inc	eax
	mov	DWORD PTR i$[rsp], eax
$LN4@stbrp_pack:
	mov	eax, DWORD PTR num_rects$[rsp]
	cmp	DWORD PTR i$[rsp], eax
	jge	SHORT $LN3@stbrp_pack
; Line 551
	movsxd	rax, DWORD PTR i$[rsp]
	imul	rax, rax, 24
	mov	rcx, QWORD PTR rects$[rsp]
	mov	edx, DWORD PTR i$[rsp]
	mov	DWORD PTR [rcx+rax+20], edx
; Line 552
	jmp	SHORT $LN2@stbrp_pack
$LN3@stbrp_pack:
; Line 555
	movsxd	rax, DWORD PTR num_rects$[rsp]
	lea	r9, OFFSET FLAT:?rect_height_compare@@YAHPEBX0@Z ; rect_height_compare
	mov	r8d, 24
	mov	rdx, rax
	mov	rcx, QWORD PTR rects$[rsp]
	call	QWORD PTR __imp_qsort
	npad	1
; Line 557
	mov	DWORD PTR i$[rsp], 0
	jmp	SHORT $LN7@stbrp_pack
$LN5@stbrp_pack:
	mov	eax, DWORD PTR i$[rsp]
	inc	eax
	mov	DWORD PTR i$[rsp], eax
$LN7@stbrp_pack:
	mov	eax, DWORD PTR num_rects$[rsp]
	cmp	DWORD PTR i$[rsp], eax
	jge	$LN6@stbrp_pack
; Line 558
	movsxd	rax, DWORD PTR i$[rsp]
	imul	rax, rax, 24
	mov	rcx, QWORD PTR rects$[rsp]
	cmp	DWORD PTR [rcx+rax+4], 0
	je	SHORT $LN13@stbrp_pack
	movsxd	rax, DWORD PTR i$[rsp]
	imul	rax, rax, 24
	mov	rcx, QWORD PTR rects$[rsp]
	cmp	DWORD PTR [rcx+rax+8], 0
	jne	SHORT $LN11@stbrp_pack
$LN13@stbrp_pack:
; Line 559
	movsxd	rax, DWORD PTR i$[rsp]
	imul	rax, rax, 24
	mov	rcx, QWORD PTR rects$[rsp]
	mov	DWORD PTR [rcx+rax+16], 0
	movsxd	rax, DWORD PTR i$[rsp]
	imul	rax, rax, 24
	mov	rcx, QWORD PTR rects$[rsp]
	mov	DWORD PTR [rcx+rax+12], 0
; Line 560
	jmp	$LN12@stbrp_pack
$LN11@stbrp_pack:
; Line 562
	movsxd	rax, DWORD PTR i$[rsp]
	imul	rax, rax, 24
	movsxd	rcx, DWORD PTR i$[rsp]
	imul	rcx, rcx, 24
	mov	rdx, QWORD PTR rects$[rsp]
	mov	r9d, DWORD PTR [rdx+rax+8]
	mov	rax, QWORD PTR rects$[rsp]
	mov	r8d, DWORD PTR [rax+rcx+4]
	mov	rdx, QWORD PTR context$[rsp]
	lea	rcx, QWORD PTR $T3[rsp]
	call	?stbrp__skyline_pack_rectangle@@YA?AUstbrp__findresult@@PEAUstbrp_context@@HH@Z ; stbrp__skyline_pack_rectangle
	lea	rcx, QWORD PTR $T2[rsp]
	mov	rdi, rcx
	mov	rsi, rax
	mov	ecx, 16
	rep movsb
	lea	rax, QWORD PTR fr$1[rsp]
	lea	rcx, QWORD PTR $T2[rsp]
	mov	rdi, rax
	mov	rsi, rcx
	mov	ecx, 16
	rep movsb
; Line 563
	cmp	QWORD PTR fr$1[rsp+8], 0
	je	SHORT $LN14@stbrp_pack
; Line 564
	movsxd	rax, DWORD PTR i$[rsp]
	imul	rax, rax, 24
	mov	rcx, QWORD PTR rects$[rsp]
	mov	edx, DWORD PTR fr$1[rsp]
	mov	DWORD PTR [rcx+rax+12], edx
; Line 565
	movsxd	rax, DWORD PTR i$[rsp]
	imul	rax, rax, 24
	mov	rcx, QWORD PTR rects$[rsp]
	mov	edx, DWORD PTR fr$1[rsp+4]
	mov	DWORD PTR [rcx+rax+16], edx
; Line 566
	jmp	SHORT $LN15@stbrp_pack
$LN14@stbrp_pack:
; Line 568
	movsxd	rax, DWORD PTR i$[rsp]
	imul	rax, rax, 24
	mov	rcx, QWORD PTR rects$[rsp]
	mov	DWORD PTR [rcx+rax+16], 2147483647	; 7fffffffH
	movsxd	rax, DWORD PTR i$[rsp]
	imul	rax, rax, 24
	mov	rcx, QWORD PTR rects$[rsp]
	mov	DWORD PTR [rcx+rax+12], 2147483647	; 7fffffffH
$LN15@stbrp_pack:
$LN12@stbrp_pack:
; Line 571
	jmp	$LN5@stbrp_pack
$LN6@stbrp_pack:
; Line 574
	movsxd	rax, DWORD PTR num_rects$[rsp]
	lea	r9, OFFSET FLAT:?rect_original_order@@YAHPEBX0@Z ; rect_original_order
	mov	r8d, 24
	mov	rdx, rax
	mov	rcx, QWORD PTR rects$[rsp]
	call	QWORD PTR __imp_qsort
	npad	1
; Line 577
	mov	DWORD PTR i$[rsp], 0
	jmp	SHORT $LN10@stbrp_pack
$LN8@stbrp_pack:
	mov	eax, DWORD PTR i$[rsp]
	inc	eax
	mov	DWORD PTR i$[rsp], eax
$LN10@stbrp_pack:
	mov	eax, DWORD PTR num_rects$[rsp]
	cmp	DWORD PTR i$[rsp], eax
	jge	$LN9@stbrp_pack
; Line 578
	movsxd	rax, DWORD PTR i$[rsp]
	imul	rax, rax, 24
	mov	rcx, QWORD PTR rects$[rsp]
	cmp	DWORD PTR [rcx+rax+12], 2147483647	; 7fffffffH
	jne	SHORT $LN18@stbrp_pack
	movsxd	rax, DWORD PTR i$[rsp]
	imul	rax, rax, 24
	mov	rcx, QWORD PTR rects$[rsp]
	cmp	DWORD PTR [rcx+rax+16], 2147483647	; 7fffffffH
	jne	SHORT $LN18@stbrp_pack
	mov	DWORD PTR tv179[rsp], 0
	jmp	SHORT $LN19@stbrp_pack
$LN18@stbrp_pack:
	mov	DWORD PTR tv179[rsp], 1
$LN19@stbrp_pack:
	movsxd	rax, DWORD PTR i$[rsp]
	imul	rax, rax, 24
	mov	rcx, QWORD PTR rects$[rsp]
	mov	edx, DWORD PTR tv179[rsp]
	mov	DWORD PTR [rcx+rax+20], edx
; Line 579
	movsxd	rax, DWORD PTR i$[rsp]
	imul	rax, rax, 24
	mov	rcx, QWORD PTR rects$[rsp]
	cmp	DWORD PTR [rcx+rax+20], 0
	jne	SHORT $LN16@stbrp_pack
; Line 580
	mov	DWORD PTR all_rects_packed$[rsp], 0
$LN16@stbrp_pack:
; Line 581
	jmp	$LN8@stbrp_pack
$LN9@stbrp_pack:
; Line 584
	mov	eax, DWORD PTR all_rects_packed$[rsp]
; Line 585
	add	rsp, 104				; 00000068H
	pop	rdi
	pop	rsi
	ret	0
stbrp_pack_rects ENDP
_TEXT	ENDS
; Function compile flags: /Odtp
;	COMDAT sprintf
_TEXT	SEGMENT
_Result$ = 32
_ArgList$ = 40
_Buffer$ = 64
_Format$ = 72
sprintf	PROC						; COMDAT
; File D:\Windows Kits\10\include\10.0.22621.0\ucrt\stdio.h
; Line 1771
$LN3:
	mov	QWORD PTR [rsp+16], rdx
	mov	QWORD PTR [rsp+8], rcx
	mov	QWORD PTR [rsp+24], r8
	mov	QWORD PTR [rsp+32], r9
	sub	rsp, 56					; 00000038H
; Line 1774
	lea	rax, QWORD PTR _Format$[rsp+8]
	mov	QWORD PTR _ArgList$[rsp], rax
; Line 1776
	mov	r9, QWORD PTR _ArgList$[rsp]
	xor	r8d, r8d
	mov	rdx, QWORD PTR _Format$[rsp]
	mov	rcx, QWORD PTR _Buffer$[rsp]
	call	_vsprintf_l
	mov	DWORD PTR _Result$[rsp], eax
; Line 1778
	mov	QWORD PTR _ArgList$[rsp], 0
; Line 1779
	mov	eax, DWORD PTR _Result$[rsp]
; Line 1780
	add	rsp, 56					; 00000038H
	ret	0
sprintf	ENDP
_TEXT	ENDS
; Function compile flags: /Odtp
;	COMDAT _vsprintf_l
_TEXT	SEGMENT
_Buffer$ = 64
_Format$ = 72
_Locale$ = 80
_ArgList$ = 88
_vsprintf_l PROC					; COMDAT
; File D:\Windows Kits\10\include\10.0.22621.0\ucrt\stdio.h
; Line 1458
$LN3:
	mov	QWORD PTR [rsp+32], r9
	mov	QWORD PTR [rsp+24], r8
	mov	QWORD PTR [rsp+16], rdx
	mov	QWORD PTR [rsp+8], rcx
	sub	rsp, 56					; 00000038H
; Line 1459
	mov	rax, QWORD PTR _ArgList$[rsp]
	mov	QWORD PTR [rsp+32], rax
	mov	r9, QWORD PTR _Locale$[rsp]
	mov	r8, QWORD PTR _Format$[rsp]
	mov	rdx, -1
	mov	rcx, QWORD PTR _Buffer$[rsp]
	call	_vsnprintf_l
; Line 1460
	add	rsp, 56					; 00000038H
	ret	0
_vsprintf_l ENDP
_TEXT	ENDS
; Function compile flags: /Odtp
;	COMDAT _vsnprintf_l
_TEXT	SEGMENT
_Result$ = 48
tv74 = 52
_Buffer$ = 80
_BufferCount$ = 88
_Format$ = 96
_Locale$ = 104
_ArgList$ = 112
_vsnprintf_l PROC					; COMDAT
; File D:\Windows Kits\10\include\10.0.22621.0\ucrt\stdio.h
; Line 1391
$LN5:
	mov	QWORD PTR [rsp+32], r9
	mov	QWORD PTR [rsp+24], r8
	mov	QWORD PTR [rsp+16], rdx
	mov	QWORD PTR [rsp+8], rcx
	sub	rsp, 72					; 00000048H
; Line 1392
	call	__local_stdio_printf_options
	mov	rax, QWORD PTR [rax]
	or	rax, 1
	mov	rcx, QWORD PTR _ArgList$[rsp]
	mov	QWORD PTR [rsp+40], rcx
	mov	rcx, QWORD PTR _Locale$[rsp]
	mov	QWORD PTR [rsp+32], rcx
	mov	r9, QWORD PTR _Format$[rsp]
	mov	r8, QWORD PTR _BufferCount$[rsp]
	mov	rdx, QWORD PTR _Buffer$[rsp]
	mov	rcx, rax
	call	QWORD PTR __imp___stdio_common_vsprintf
	mov	DWORD PTR _Result$[rsp], eax
; Line 1396
	cmp	DWORD PTR _Result$[rsp], 0
	jge	SHORT $LN3@vsnprintf_
	mov	DWORD PTR tv74[rsp], -1
	jmp	SHORT $LN4@vsnprintf_
$LN3@vsnprintf_:
	mov	eax, DWORD PTR _Result$[rsp]
	mov	DWORD PTR tv74[rsp], eax
$LN4@vsnprintf_:
	mov	eax, DWORD PTR tv74[rsp]
; Line 1397
	add	rsp, 72					; 00000048H
	ret	0
_vsnprintf_l ENDP
_TEXT	ENDS
; Function compile flags: /Odtp
;	COMDAT __local_stdio_printf_options
_TEXT	SEGMENT
__local_stdio_printf_options PROC			; COMDAT
; File D:\Windows Kits\10\include\10.0.22621.0\ucrt\corecrt_stdio_config.h
; Line 92
	lea	rax, OFFSET FLAT:?_OptionsStorage@?1??__local_stdio_printf_options@@9@4_KA ; `__local_stdio_printf_options'::`2'::_OptionsStorage
; Line 93
	ret	0
__local_stdio_printf_options ENDP
_TEXT	ENDS
END
